   1               		.file	"avr_sub_mani.cpp"
   2               	__SP_H__ = 0x3e
   3               	__SP_L__ = 0x3d
   4               	__SREG__ = 0x3f
   5               	__RAMPZ__ = 0x3b
   6               	__tmp_reg__ = 0
   7               	__zero_reg__ = 1
   8               		.text
   9               	.Ltext0:
  10               		.cfi_sections	.debug_frame
  11               		.section	.text._ZNK8std_msgs4Time9serializeEPh,"axG",@progbits,_ZNK8std_msgs4Time9serializeEPh,com
  12               		.weak	_ZNK8std_msgs4Time9serializeEPh
  14               	_ZNK8std_msgs4Time9serializeEPh:
  15               	.LFB33:
  16               		.file 1 "./ros_lib/std_msgs/Time.h"
   1:./ros_lib/std_msgs/Time.h **** #ifndef _ROS_std_msgs_Time_h
   2:./ros_lib/std_msgs/Time.h **** #define _ROS_std_msgs_Time_h
   3:./ros_lib/std_msgs/Time.h **** 
   4:./ros_lib/std_msgs/Time.h **** #include <stdint.h>
   5:./ros_lib/std_msgs/Time.h **** #include <string.h>
   6:./ros_lib/std_msgs/Time.h **** #include <stdlib.h>
   7:./ros_lib/std_msgs/Time.h **** #include "ros/msg.h"
   8:./ros_lib/std_msgs/Time.h **** #include "ros/time.h"
   9:./ros_lib/std_msgs/Time.h **** 
  10:./ros_lib/std_msgs/Time.h **** namespace std_msgs
  11:./ros_lib/std_msgs/Time.h **** {
  12:./ros_lib/std_msgs/Time.h **** 
  13:./ros_lib/std_msgs/Time.h ****   class Time : public ros::Msg
  14:./ros_lib/std_msgs/Time.h ****   {
  15:./ros_lib/std_msgs/Time.h ****     public:
  16:./ros_lib/std_msgs/Time.h ****       typedef ros::Time _data_type;
  17:./ros_lib/std_msgs/Time.h ****       _data_type data;
  18:./ros_lib/std_msgs/Time.h **** 
  19:./ros_lib/std_msgs/Time.h ****     Time():
  20:./ros_lib/std_msgs/Time.h ****       data()
  21:./ros_lib/std_msgs/Time.h ****     {
  22:./ros_lib/std_msgs/Time.h ****     }
  23:./ros_lib/std_msgs/Time.h **** 
  24:./ros_lib/std_msgs/Time.h ****     virtual int serialize(unsigned char *outbuffer) const override
  17               		.loc 1 24 0
  18               		.cfi_startproc
  19               	.LVL0:
  20               	/* prologue: function */
  21               	/* frame size = 0 */
  22               	/* stack size = 0 */
  23               	.L__stack_usage = 0
  24 0000 DC01      		movw r26,r24
  25 0002 FB01      		movw r30,r22
  26               	.LVL1:
  25:./ros_lib/std_msgs/Time.h ****     {
  26:./ros_lib/std_msgs/Time.h ****       int offset = 0;
  27:./ros_lib/std_msgs/Time.h ****       *(outbuffer + offset + 0) = (this->data.sec >> (8 * 0)) & 0xFF;
  27               		.loc 1 27 0
  28 0004 1296      		adiw r26,2
  29 0006 8C91      		ld r24,X
  30 0008 1297      		sbiw r26,2
  31               	.LVL2:
  32 000a 8083      		st Z,r24
  28:./ros_lib/std_msgs/Time.h ****       *(outbuffer + offset + 1) = (this->data.sec >> (8 * 1)) & 0xFF;
  33               		.loc 1 28 0
  34 000c 1396      		adiw r26,3
  35 000e 8C91      		ld r24,X
  36 0010 1397      		sbiw r26,3
  37 0012 8183      		std Z+1,r24
  29:./ros_lib/std_msgs/Time.h ****       *(outbuffer + offset + 2) = (this->data.sec >> (8 * 2)) & 0xFF;
  38               		.loc 1 29 0
  39 0014 1496      		adiw r26,4
  40 0016 8C91      		ld r24,X
  41 0018 1497      		sbiw r26,4
  42 001a 8283      		std Z+2,r24
  30:./ros_lib/std_msgs/Time.h ****       *(outbuffer + offset + 3) = (this->data.sec >> (8 * 3)) & 0xFF;
  43               		.loc 1 30 0
  44 001c 1596      		adiw r26,5
  45 001e 8C91      		ld r24,X
  46 0020 1597      		sbiw r26,5
  47 0022 8383      		std Z+3,r24
  48               	.LVL3:
  31:./ros_lib/std_msgs/Time.h ****       offset += sizeof(this->data.sec);
  32:./ros_lib/std_msgs/Time.h ****       *(outbuffer + offset + 0) = (this->data.nsec >> (8 * 0)) & 0xFF;
  49               		.loc 1 32 0
  50 0024 1696      		adiw r26,6
  51 0026 8C91      		ld r24,X
  52 0028 1697      		sbiw r26,6
  53 002a 8483      		std Z+4,r24
  33:./ros_lib/std_msgs/Time.h ****       *(outbuffer + offset + 1) = (this->data.nsec >> (8 * 1)) & 0xFF;
  54               		.loc 1 33 0
  55 002c 1796      		adiw r26,7
  56 002e 8C91      		ld r24,X
  57 0030 1797      		sbiw r26,7
  58 0032 8583      		std Z+5,r24
  34:./ros_lib/std_msgs/Time.h ****       *(outbuffer + offset + 2) = (this->data.nsec >> (8 * 2)) & 0xFF;
  59               		.loc 1 34 0
  60 0034 1896      		adiw r26,8
  61 0036 8C91      		ld r24,X
  62 0038 1897      		sbiw r26,8
  63 003a 8683      		std Z+6,r24
  35:./ros_lib/std_msgs/Time.h ****       *(outbuffer + offset + 3) = (this->data.nsec >> (8 * 3)) & 0xFF;
  64               		.loc 1 35 0
  65 003c 1996      		adiw r26,9
  66 003e 8C91      		ld r24,X
  67 0040 8783      		std Z+7,r24
  68               	.LVL4:
  36:./ros_lib/std_msgs/Time.h ****       offset += sizeof(this->data.nsec);
  37:./ros_lib/std_msgs/Time.h ****       return offset;
  38:./ros_lib/std_msgs/Time.h ****     }
  69               		.loc 1 38 0
  70 0042 88E0      		ldi r24,lo8(8)
  71 0044 90E0      		ldi r25,0
  72 0046 0895      		ret
  73               		.cfi_endproc
  74               	.LFE33:
  76               		.section	.text._ZN8std_msgs4Time11deserializeEPh,"axG",@progbits,_ZN8std_msgs4Time11deserializeEPh
  77               		.weak	_ZN8std_msgs4Time11deserializeEPh
  79               	_ZN8std_msgs4Time11deserializeEPh:
  80               	.LFB34:
  39:./ros_lib/std_msgs/Time.h **** 
  40:./ros_lib/std_msgs/Time.h ****     virtual int deserialize(unsigned char *inbuffer) override
  81               		.loc 1 40 0
  82               		.cfi_startproc
  83               	.LVL5:
  84               	/* prologue: function */
  85               	/* frame size = 0 */
  86               	/* stack size = 0 */
  87               	.L__stack_usage = 0
  88 0000 FC01      		movw r30,r24
  89 0002 DB01      		movw r26,r22
  90               	.LVL6:
  41:./ros_lib/std_msgs/Time.h ****     {
  42:./ros_lib/std_msgs/Time.h ****       int offset = 0;
  43:./ros_lib/std_msgs/Time.h ****       this->data.sec =  ((uint32_t) (*(inbuffer + offset)));
  91               		.loc 1 43 0
  92 0004 4C91      		ld r20,X
  93 0006 50E0      		ldi r21,0
  94 0008 60E0      		ldi r22,0
  95 000a 70E0      		ldi r23,0
  96               	.LVL7:
  97 000c 4283      		std Z+2,r20
  98 000e 5383      		std Z+3,r21
  99 0010 6483      		std Z+4,r22
 100 0012 7583      		std Z+5,r23
  44:./ros_lib/std_msgs/Time.h ****       this->data.sec |= ((uint32_t) (*(inbuffer + offset + 1))) << (8 * 1);
 101               		.loc 1 44 0
 102 0014 1196      		adiw r26,1
 103 0016 8C91      		ld r24,X
 104 0018 1197      		sbiw r26,1
 105               	.LVL8:
 106 001a 582B      		or r21,r24
 107 001c 4283      		std Z+2,r20
 108 001e 5383      		std Z+3,r21
 109 0020 6483      		std Z+4,r22
 110 0022 7583      		std Z+5,r23
  45:./ros_lib/std_msgs/Time.h ****       this->data.sec |= ((uint32_t) (*(inbuffer + offset + 2))) << (8 * 2);
 111               		.loc 1 45 0
 112 0024 1296      		adiw r26,2
 113 0026 8C91      		ld r24,X
 114 0028 1297      		sbiw r26,2
 115 002a 682B      		or r22,r24
 116 002c 4283      		std Z+2,r20
 117 002e 5383      		std Z+3,r21
 118 0030 6483      		std Z+4,r22
 119 0032 7583      		std Z+5,r23
  46:./ros_lib/std_msgs/Time.h ****       this->data.sec |= ((uint32_t) (*(inbuffer + offset + 3))) << (8 * 3);
 120               		.loc 1 46 0
 121 0034 1396      		adiw r26,3
 122 0036 8C91      		ld r24,X
 123 0038 1397      		sbiw r26,3
 124 003a 782B      		or r23,r24
 125 003c 4283      		std Z+2,r20
 126 003e 5383      		std Z+3,r21
 127 0040 6483      		std Z+4,r22
 128 0042 7583      		std Z+5,r23
 129               	.LVL9:
  47:./ros_lib/std_msgs/Time.h ****       offset += sizeof(this->data.sec);
  48:./ros_lib/std_msgs/Time.h ****       this->data.nsec =  ((uint32_t) (*(inbuffer + offset)));
 130               		.loc 1 48 0
 131 0044 1496      		adiw r26,4
 132 0046 4C91      		ld r20,X
 133 0048 1497      		sbiw r26,4
 134 004a 50E0      		ldi r21,0
 135 004c 60E0      		ldi r22,0
 136 004e 70E0      		ldi r23,0
 137 0050 4683      		std Z+6,r20
 138 0052 5783      		std Z+7,r21
 139 0054 6087      		std Z+8,r22
 140 0056 7187      		std Z+9,r23
  49:./ros_lib/std_msgs/Time.h ****       this->data.nsec |= ((uint32_t) (*(inbuffer + offset + 1))) << (8 * 1);
 141               		.loc 1 49 0
 142 0058 1596      		adiw r26,5
 143 005a 8C91      		ld r24,X
 144 005c 1597      		sbiw r26,5
 145 005e 582B      		or r21,r24
 146 0060 4683      		std Z+6,r20
 147 0062 5783      		std Z+7,r21
 148 0064 6087      		std Z+8,r22
 149 0066 7187      		std Z+9,r23
  50:./ros_lib/std_msgs/Time.h ****       this->data.nsec |= ((uint32_t) (*(inbuffer + offset + 2))) << (8 * 2);
 150               		.loc 1 50 0
 151 0068 1696      		adiw r26,6
 152 006a 8C91      		ld r24,X
 153 006c 1697      		sbiw r26,6
 154 006e 682B      		or r22,r24
 155 0070 4683      		std Z+6,r20
 156 0072 5783      		std Z+7,r21
 157 0074 6087      		std Z+8,r22
 158 0076 7187      		std Z+9,r23
  51:./ros_lib/std_msgs/Time.h ****       this->data.nsec |= ((uint32_t) (*(inbuffer + offset + 3))) << (8 * 3);
 159               		.loc 1 51 0
 160 0078 1796      		adiw r26,7
 161 007a 8C91      		ld r24,X
 162 007c 782B      		or r23,r24
 163 007e 4683      		std Z+6,r20
 164 0080 5783      		std Z+7,r21
 165 0082 6087      		std Z+8,r22
 166 0084 7187      		std Z+9,r23
 167               	.LVL10:
  52:./ros_lib/std_msgs/Time.h ****       offset += sizeof(this->data.nsec);
  53:./ros_lib/std_msgs/Time.h ****      return offset;
  54:./ros_lib/std_msgs/Time.h ****     }
 168               		.loc 1 54 0
 169 0086 88E0      		ldi r24,lo8(8)
 170 0088 90E0      		ldi r25,0
 171 008a 0895      		ret
 172               		.cfi_endproc
 173               	.LFE34:
 175               		.section	.rodata.str1.1,"aMS",@progbits,1
 176               	.LC0:
 177 0000 7374 645F 		.string	"std_msgs/Time"
 177      6D73 6773 
 177      2F54 696D 
 177      6500 
 178               		.section	.text._ZN8std_msgs4Time7getTypeEv,"axG",@progbits,_ZN8std_msgs4Time7getTypeEv,comdat
 179               		.weak	_ZN8std_msgs4Time7getTypeEv
 181               	_ZN8std_msgs4Time7getTypeEv:
 182               	.LFB35:
  55:./ros_lib/std_msgs/Time.h **** 
  56:./ros_lib/std_msgs/Time.h ****     virtual const char * getType() override { return "std_msgs/Time"; };
 183               		.loc 1 56 0
 184               		.cfi_startproc
 185               	.LVL11:
 186               	/* prologue: function */
 187               	/* frame size = 0 */
 188               	/* stack size = 0 */
 189               	.L__stack_usage = 0
 190               		.loc 1 56 0
 191 0000 80E0      		ldi r24,lo8(.LC0)
 192 0002 90E0      		ldi r25,hi8(.LC0)
 193               	.LVL12:
 194 0004 0895      		ret
 195               		.cfi_endproc
 196               	.LFE35:
 198               		.section	.rodata.str1.1
 199               	.LC1:
 200 000e 6364 3731 		.string	"cd7166c74c552c311fbcc2fe5a7bc289"
 200      3636 6337 
 200      3463 3535 
 200      3263 3331 
 200      3166 6263 
 201               		.section	.text._ZN8std_msgs4Time6getMD5Ev,"axG",@progbits,_ZN8std_msgs4Time6getMD5Ev,comdat
 202               		.weak	_ZN8std_msgs4Time6getMD5Ev
 204               	_ZN8std_msgs4Time6getMD5Ev:
 205               	.LFB36:
  57:./ros_lib/std_msgs/Time.h ****     virtual const char * getMD5() override { return "cd7166c74c552c311fbcc2fe5a7bc289"; };
 206               		.loc 1 57 0
 207               		.cfi_startproc
 208               	.LVL13:
 209               	/* prologue: function */
 210               	/* frame size = 0 */
 211               	/* stack size = 0 */
 212               	.L__stack_usage = 0
 213               		.loc 1 57 0
 214 0000 80E0      		ldi r24,lo8(.LC1)
 215 0002 90E0      		ldi r25,hi8(.LC1)
 216               	.LVL14:
 217 0004 0895      		ret
 218               		.cfi_endproc
 219               	.LFE36:
 221               		.section	.rodata.str1.1
 222               	.LC2:
 223 002f 726F 7373 		.string	"rosserial_msgs/TopicInfo"
 223      6572 6961 
 223      6C5F 6D73 
 223      6773 2F54 
 223      6F70 6963 
 224               		.section	.text._ZN14rosserial_msgs9TopicInfo7getTypeEv,"axG",@progbits,_ZN14rosserial_msgs9TopicIn
 225               		.weak	_ZN14rosserial_msgs9TopicInfo7getTypeEv
 227               	_ZN14rosserial_msgs9TopicInfo7getTypeEv:
 228               	.LFB42:
 229               		.file 2 "./ros_lib/rosserial_msgs/TopicInfo.h"
   1:./ros_lib/rosserial_msgs/TopicInfo.h **** #ifndef _ROS_rosserial_msgs_TopicInfo_h
   2:./ros_lib/rosserial_msgs/TopicInfo.h **** #define _ROS_rosserial_msgs_TopicInfo_h
   3:./ros_lib/rosserial_msgs/TopicInfo.h **** 
   4:./ros_lib/rosserial_msgs/TopicInfo.h **** #include <stdint.h>
   5:./ros_lib/rosserial_msgs/TopicInfo.h **** #include <string.h>
   6:./ros_lib/rosserial_msgs/TopicInfo.h **** #include <stdlib.h>
   7:./ros_lib/rosserial_msgs/TopicInfo.h **** #include "ros/msg.h"
   8:./ros_lib/rosserial_msgs/TopicInfo.h **** 
   9:./ros_lib/rosserial_msgs/TopicInfo.h **** namespace rosserial_msgs
  10:./ros_lib/rosserial_msgs/TopicInfo.h **** {
  11:./ros_lib/rosserial_msgs/TopicInfo.h **** 
  12:./ros_lib/rosserial_msgs/TopicInfo.h ****   class TopicInfo : public ros::Msg
  13:./ros_lib/rosserial_msgs/TopicInfo.h ****   {
  14:./ros_lib/rosserial_msgs/TopicInfo.h ****     public:
  15:./ros_lib/rosserial_msgs/TopicInfo.h ****       typedef uint16_t _topic_id_type;
  16:./ros_lib/rosserial_msgs/TopicInfo.h ****       _topic_id_type topic_id;
  17:./ros_lib/rosserial_msgs/TopicInfo.h ****       typedef const char* _topic_name_type;
  18:./ros_lib/rosserial_msgs/TopicInfo.h ****       _topic_name_type topic_name;
  19:./ros_lib/rosserial_msgs/TopicInfo.h ****       typedef const char* _message_type_type;
  20:./ros_lib/rosserial_msgs/TopicInfo.h ****       _message_type_type message_type;
  21:./ros_lib/rosserial_msgs/TopicInfo.h ****       typedef const char* _md5sum_type;
  22:./ros_lib/rosserial_msgs/TopicInfo.h ****       _md5sum_type md5sum;
  23:./ros_lib/rosserial_msgs/TopicInfo.h ****       typedef int32_t _buffer_size_type;
  24:./ros_lib/rosserial_msgs/TopicInfo.h ****       _buffer_size_type buffer_size;
  25:./ros_lib/rosserial_msgs/TopicInfo.h ****       enum { ID_PUBLISHER = 0 };
  26:./ros_lib/rosserial_msgs/TopicInfo.h ****       enum { ID_SUBSCRIBER = 1 };
  27:./ros_lib/rosserial_msgs/TopicInfo.h ****       enum { ID_SERVICE_SERVER = 2 };
  28:./ros_lib/rosserial_msgs/TopicInfo.h ****       enum { ID_SERVICE_CLIENT = 4 };
  29:./ros_lib/rosserial_msgs/TopicInfo.h ****       enum { ID_PARAMETER_REQUEST = 6 };
  30:./ros_lib/rosserial_msgs/TopicInfo.h ****       enum { ID_LOG = 7 };
  31:./ros_lib/rosserial_msgs/TopicInfo.h ****       enum { ID_TIME = 10 };
  32:./ros_lib/rosserial_msgs/TopicInfo.h ****       enum { ID_TX_STOP = 11 };
  33:./ros_lib/rosserial_msgs/TopicInfo.h **** 
  34:./ros_lib/rosserial_msgs/TopicInfo.h ****     TopicInfo():
  35:./ros_lib/rosserial_msgs/TopicInfo.h ****       topic_id(0),
  36:./ros_lib/rosserial_msgs/TopicInfo.h ****       topic_name(""),
  37:./ros_lib/rosserial_msgs/TopicInfo.h ****       message_type(""),
  38:./ros_lib/rosserial_msgs/TopicInfo.h ****       md5sum(""),
  39:./ros_lib/rosserial_msgs/TopicInfo.h ****       buffer_size(0)
  40:./ros_lib/rosserial_msgs/TopicInfo.h ****     {
  41:./ros_lib/rosserial_msgs/TopicInfo.h ****     }
  42:./ros_lib/rosserial_msgs/TopicInfo.h **** 
  43:./ros_lib/rosserial_msgs/TopicInfo.h ****     virtual int serialize(unsigned char *outbuffer) const override
  44:./ros_lib/rosserial_msgs/TopicInfo.h ****     {
  45:./ros_lib/rosserial_msgs/TopicInfo.h ****       int offset = 0;
  46:./ros_lib/rosserial_msgs/TopicInfo.h ****       *(outbuffer + offset + 0) = (this->topic_id >> (8 * 0)) & 0xFF;
  47:./ros_lib/rosserial_msgs/TopicInfo.h ****       *(outbuffer + offset + 1) = (this->topic_id >> (8 * 1)) & 0xFF;
  48:./ros_lib/rosserial_msgs/TopicInfo.h ****       offset += sizeof(this->topic_id);
  49:./ros_lib/rosserial_msgs/TopicInfo.h ****       uint32_t length_topic_name = strlen(this->topic_name);
  50:./ros_lib/rosserial_msgs/TopicInfo.h ****       varToArr(outbuffer + offset, length_topic_name);
  51:./ros_lib/rosserial_msgs/TopicInfo.h ****       offset += 4;
  52:./ros_lib/rosserial_msgs/TopicInfo.h ****       memcpy(outbuffer + offset, this->topic_name, length_topic_name);
  53:./ros_lib/rosserial_msgs/TopicInfo.h ****       offset += length_topic_name;
  54:./ros_lib/rosserial_msgs/TopicInfo.h ****       uint32_t length_message_type = strlen(this->message_type);
  55:./ros_lib/rosserial_msgs/TopicInfo.h ****       varToArr(outbuffer + offset, length_message_type);
  56:./ros_lib/rosserial_msgs/TopicInfo.h ****       offset += 4;
  57:./ros_lib/rosserial_msgs/TopicInfo.h ****       memcpy(outbuffer + offset, this->message_type, length_message_type);
  58:./ros_lib/rosserial_msgs/TopicInfo.h ****       offset += length_message_type;
  59:./ros_lib/rosserial_msgs/TopicInfo.h ****       uint32_t length_md5sum = strlen(this->md5sum);
  60:./ros_lib/rosserial_msgs/TopicInfo.h ****       varToArr(outbuffer + offset, length_md5sum);
  61:./ros_lib/rosserial_msgs/TopicInfo.h ****       offset += 4;
  62:./ros_lib/rosserial_msgs/TopicInfo.h ****       memcpy(outbuffer + offset, this->md5sum, length_md5sum);
  63:./ros_lib/rosserial_msgs/TopicInfo.h ****       offset += length_md5sum;
  64:./ros_lib/rosserial_msgs/TopicInfo.h ****       union {
  65:./ros_lib/rosserial_msgs/TopicInfo.h ****         int32_t real;
  66:./ros_lib/rosserial_msgs/TopicInfo.h ****         uint32_t base;
  67:./ros_lib/rosserial_msgs/TopicInfo.h ****       } u_buffer_size;
  68:./ros_lib/rosserial_msgs/TopicInfo.h ****       u_buffer_size.real = this->buffer_size;
  69:./ros_lib/rosserial_msgs/TopicInfo.h ****       *(outbuffer + offset + 0) = (u_buffer_size.base >> (8 * 0)) & 0xFF;
  70:./ros_lib/rosserial_msgs/TopicInfo.h ****       *(outbuffer + offset + 1) = (u_buffer_size.base >> (8 * 1)) & 0xFF;
  71:./ros_lib/rosserial_msgs/TopicInfo.h ****       *(outbuffer + offset + 2) = (u_buffer_size.base >> (8 * 2)) & 0xFF;
  72:./ros_lib/rosserial_msgs/TopicInfo.h ****       *(outbuffer + offset + 3) = (u_buffer_size.base >> (8 * 3)) & 0xFF;
  73:./ros_lib/rosserial_msgs/TopicInfo.h ****       offset += sizeof(this->buffer_size);
  74:./ros_lib/rosserial_msgs/TopicInfo.h ****       return offset;
  75:./ros_lib/rosserial_msgs/TopicInfo.h ****     }
  76:./ros_lib/rosserial_msgs/TopicInfo.h **** 
  77:./ros_lib/rosserial_msgs/TopicInfo.h ****     virtual int deserialize(unsigned char *inbuffer) override
  78:./ros_lib/rosserial_msgs/TopicInfo.h ****     {
  79:./ros_lib/rosserial_msgs/TopicInfo.h ****       int offset = 0;
  80:./ros_lib/rosserial_msgs/TopicInfo.h ****       this->topic_id =  ((uint16_t) (*(inbuffer + offset)));
  81:./ros_lib/rosserial_msgs/TopicInfo.h ****       this->topic_id |= ((uint16_t) (*(inbuffer + offset + 1))) << (8 * 1);
  82:./ros_lib/rosserial_msgs/TopicInfo.h ****       offset += sizeof(this->topic_id);
  83:./ros_lib/rosserial_msgs/TopicInfo.h ****       uint32_t length_topic_name;
  84:./ros_lib/rosserial_msgs/TopicInfo.h ****       arrToVar(length_topic_name, (inbuffer + offset));
  85:./ros_lib/rosserial_msgs/TopicInfo.h ****       offset += 4;
  86:./ros_lib/rosserial_msgs/TopicInfo.h ****       for(unsigned int k= offset; k< offset+length_topic_name; ++k){
  87:./ros_lib/rosserial_msgs/TopicInfo.h ****           inbuffer[k-1]=inbuffer[k];
  88:./ros_lib/rosserial_msgs/TopicInfo.h ****       }
  89:./ros_lib/rosserial_msgs/TopicInfo.h ****       inbuffer[offset+length_topic_name-1]=0;
  90:./ros_lib/rosserial_msgs/TopicInfo.h ****       this->topic_name = (char *)(inbuffer + offset-1);
  91:./ros_lib/rosserial_msgs/TopicInfo.h ****       offset += length_topic_name;
  92:./ros_lib/rosserial_msgs/TopicInfo.h ****       uint32_t length_message_type;
  93:./ros_lib/rosserial_msgs/TopicInfo.h ****       arrToVar(length_message_type, (inbuffer + offset));
  94:./ros_lib/rosserial_msgs/TopicInfo.h ****       offset += 4;
  95:./ros_lib/rosserial_msgs/TopicInfo.h ****       for(unsigned int k= offset; k< offset+length_message_type; ++k){
  96:./ros_lib/rosserial_msgs/TopicInfo.h ****           inbuffer[k-1]=inbuffer[k];
  97:./ros_lib/rosserial_msgs/TopicInfo.h ****       }
  98:./ros_lib/rosserial_msgs/TopicInfo.h ****       inbuffer[offset+length_message_type-1]=0;
  99:./ros_lib/rosserial_msgs/TopicInfo.h ****       this->message_type = (char *)(inbuffer + offset-1);
 100:./ros_lib/rosserial_msgs/TopicInfo.h ****       offset += length_message_type;
 101:./ros_lib/rosserial_msgs/TopicInfo.h ****       uint32_t length_md5sum;
 102:./ros_lib/rosserial_msgs/TopicInfo.h ****       arrToVar(length_md5sum, (inbuffer + offset));
 103:./ros_lib/rosserial_msgs/TopicInfo.h ****       offset += 4;
 104:./ros_lib/rosserial_msgs/TopicInfo.h ****       for(unsigned int k= offset; k< offset+length_md5sum; ++k){
 105:./ros_lib/rosserial_msgs/TopicInfo.h ****           inbuffer[k-1]=inbuffer[k];
 106:./ros_lib/rosserial_msgs/TopicInfo.h ****       }
 107:./ros_lib/rosserial_msgs/TopicInfo.h ****       inbuffer[offset+length_md5sum-1]=0;
 108:./ros_lib/rosserial_msgs/TopicInfo.h ****       this->md5sum = (char *)(inbuffer + offset-1);
 109:./ros_lib/rosserial_msgs/TopicInfo.h ****       offset += length_md5sum;
 110:./ros_lib/rosserial_msgs/TopicInfo.h ****       union {
 111:./ros_lib/rosserial_msgs/TopicInfo.h ****         int32_t real;
 112:./ros_lib/rosserial_msgs/TopicInfo.h ****         uint32_t base;
 113:./ros_lib/rosserial_msgs/TopicInfo.h ****       } u_buffer_size;
 114:./ros_lib/rosserial_msgs/TopicInfo.h ****       u_buffer_size.base = 0;
 115:./ros_lib/rosserial_msgs/TopicInfo.h ****       u_buffer_size.base |= ((uint32_t) (*(inbuffer + offset + 0))) << (8 * 0);
 116:./ros_lib/rosserial_msgs/TopicInfo.h ****       u_buffer_size.base |= ((uint32_t) (*(inbuffer + offset + 1))) << (8 * 1);
 117:./ros_lib/rosserial_msgs/TopicInfo.h ****       u_buffer_size.base |= ((uint32_t) (*(inbuffer + offset + 2))) << (8 * 2);
 118:./ros_lib/rosserial_msgs/TopicInfo.h ****       u_buffer_size.base |= ((uint32_t) (*(inbuffer + offset + 3))) << (8 * 3);
 119:./ros_lib/rosserial_msgs/TopicInfo.h ****       this->buffer_size = u_buffer_size.real;
 120:./ros_lib/rosserial_msgs/TopicInfo.h ****       offset += sizeof(this->buffer_size);
 121:./ros_lib/rosserial_msgs/TopicInfo.h ****      return offset;
 122:./ros_lib/rosserial_msgs/TopicInfo.h ****     }
 123:./ros_lib/rosserial_msgs/TopicInfo.h **** 
 124:./ros_lib/rosserial_msgs/TopicInfo.h ****     virtual const char * getType() override { return "rosserial_msgs/TopicInfo"; };
 230               		.loc 2 124 0
 231               		.cfi_startproc
 232               	.LVL15:
 233               	/* prologue: function */
 234               	/* frame size = 0 */
 235               	/* stack size = 0 */
 236               	.L__stack_usage = 0
 237               		.loc 2 124 0
 238 0000 80E0      		ldi r24,lo8(.LC2)
 239 0002 90E0      		ldi r25,hi8(.LC2)
 240               	.LVL16:
 241 0004 0895      		ret
 242               		.cfi_endproc
 243               	.LFE42:
 245               		.section	.rodata.str1.1
 246               	.LC3:
 247 0048 3061 6435 		.string	"0ad51f88fc44892f8c10684077646005"
 247      3166 3838 
 247      6663 3434 
 247      3839 3266 
 247      3863 3130 
 248               		.section	.text._ZN14rosserial_msgs9TopicInfo6getMD5Ev,"axG",@progbits,_ZN14rosserial_msgs9TopicInf
 249               		.weak	_ZN14rosserial_msgs9TopicInfo6getMD5Ev
 251               	_ZN14rosserial_msgs9TopicInfo6getMD5Ev:
 252               	.LFB43:
 125:./ros_lib/rosserial_msgs/TopicInfo.h ****     virtual const char * getMD5() override { return "0ad51f88fc44892f8c10684077646005"; };
 253               		.loc 2 125 0
 254               		.cfi_startproc
 255               	.LVL17:
 256               	/* prologue: function */
 257               	/* frame size = 0 */
 258               	/* stack size = 0 */
 259               	.L__stack_usage = 0
 260               		.loc 2 125 0
 261 0000 80E0      		ldi r24,lo8(.LC3)
 262 0002 90E0      		ldi r25,hi8(.LC3)
 263               	.LVL18:
 264 0004 0895      		ret
 265               		.cfi_endproc
 266               	.LFE43:
 268               		.section	.rodata.str1.1
 269               	.LC4:
 270 0069 726F 7373 		.string	"rosserial_msgs/Log"
 270      6572 6961 
 270      6C5F 6D73 
 270      6773 2F4C 
 270      6F67 00
 271               		.section	.text._ZN14rosserial_msgs3Log7getTypeEv,"axG",@progbits,_ZN14rosserial_msgs3Log7getTypeEv
 272               		.weak	_ZN14rosserial_msgs3Log7getTypeEv
 274               	_ZN14rosserial_msgs3Log7getTypeEv:
 275               	.LFB49:
 276               		.file 3 "./ros_lib/rosserial_msgs/Log.h"
   1:./ros_lib/rosserial_msgs/Log.h **** #ifndef _ROS_rosserial_msgs_Log_h
   2:./ros_lib/rosserial_msgs/Log.h **** #define _ROS_rosserial_msgs_Log_h
   3:./ros_lib/rosserial_msgs/Log.h **** 
   4:./ros_lib/rosserial_msgs/Log.h **** #include <stdint.h>
   5:./ros_lib/rosserial_msgs/Log.h **** #include <string.h>
   6:./ros_lib/rosserial_msgs/Log.h **** #include <stdlib.h>
   7:./ros_lib/rosserial_msgs/Log.h **** #include "ros/msg.h"
   8:./ros_lib/rosserial_msgs/Log.h **** 
   9:./ros_lib/rosserial_msgs/Log.h **** namespace rosserial_msgs
  10:./ros_lib/rosserial_msgs/Log.h **** {
  11:./ros_lib/rosserial_msgs/Log.h **** 
  12:./ros_lib/rosserial_msgs/Log.h ****   class Log : public ros::Msg
  13:./ros_lib/rosserial_msgs/Log.h ****   {
  14:./ros_lib/rosserial_msgs/Log.h ****     public:
  15:./ros_lib/rosserial_msgs/Log.h ****       typedef uint8_t _level_type;
  16:./ros_lib/rosserial_msgs/Log.h ****       _level_type level;
  17:./ros_lib/rosserial_msgs/Log.h ****       typedef const char* _msg_type;
  18:./ros_lib/rosserial_msgs/Log.h ****       _msg_type msg;
  19:./ros_lib/rosserial_msgs/Log.h ****       enum { ROSDEBUG = 0 };
  20:./ros_lib/rosserial_msgs/Log.h ****       enum { INFO = 1 };
  21:./ros_lib/rosserial_msgs/Log.h ****       enum { WARN = 2 };
  22:./ros_lib/rosserial_msgs/Log.h ****       enum { ERROR = 3 };
  23:./ros_lib/rosserial_msgs/Log.h ****       enum { FATAL = 4 };
  24:./ros_lib/rosserial_msgs/Log.h **** 
  25:./ros_lib/rosserial_msgs/Log.h ****     Log():
  26:./ros_lib/rosserial_msgs/Log.h ****       level(0),
  27:./ros_lib/rosserial_msgs/Log.h ****       msg("")
  28:./ros_lib/rosserial_msgs/Log.h ****     {
  29:./ros_lib/rosserial_msgs/Log.h ****     }
  30:./ros_lib/rosserial_msgs/Log.h **** 
  31:./ros_lib/rosserial_msgs/Log.h ****     virtual int serialize(unsigned char *outbuffer) const override
  32:./ros_lib/rosserial_msgs/Log.h ****     {
  33:./ros_lib/rosserial_msgs/Log.h ****       int offset = 0;
  34:./ros_lib/rosserial_msgs/Log.h ****       *(outbuffer + offset + 0) = (this->level >> (8 * 0)) & 0xFF;
  35:./ros_lib/rosserial_msgs/Log.h ****       offset += sizeof(this->level);
  36:./ros_lib/rosserial_msgs/Log.h ****       uint32_t length_msg = strlen(this->msg);
  37:./ros_lib/rosserial_msgs/Log.h ****       varToArr(outbuffer + offset, length_msg);
  38:./ros_lib/rosserial_msgs/Log.h ****       offset += 4;
  39:./ros_lib/rosserial_msgs/Log.h ****       memcpy(outbuffer + offset, this->msg, length_msg);
  40:./ros_lib/rosserial_msgs/Log.h ****       offset += length_msg;
  41:./ros_lib/rosserial_msgs/Log.h ****       return offset;
  42:./ros_lib/rosserial_msgs/Log.h ****     }
  43:./ros_lib/rosserial_msgs/Log.h **** 
  44:./ros_lib/rosserial_msgs/Log.h ****     virtual int deserialize(unsigned char *inbuffer) override
  45:./ros_lib/rosserial_msgs/Log.h ****     {
  46:./ros_lib/rosserial_msgs/Log.h ****       int offset = 0;
  47:./ros_lib/rosserial_msgs/Log.h ****       this->level =  ((uint8_t) (*(inbuffer + offset)));
  48:./ros_lib/rosserial_msgs/Log.h ****       offset += sizeof(this->level);
  49:./ros_lib/rosserial_msgs/Log.h ****       uint32_t length_msg;
  50:./ros_lib/rosserial_msgs/Log.h ****       arrToVar(length_msg, (inbuffer + offset));
  51:./ros_lib/rosserial_msgs/Log.h ****       offset += 4;
  52:./ros_lib/rosserial_msgs/Log.h ****       for(unsigned int k= offset; k< offset+length_msg; ++k){
  53:./ros_lib/rosserial_msgs/Log.h ****           inbuffer[k-1]=inbuffer[k];
  54:./ros_lib/rosserial_msgs/Log.h ****       }
  55:./ros_lib/rosserial_msgs/Log.h ****       inbuffer[offset+length_msg-1]=0;
  56:./ros_lib/rosserial_msgs/Log.h ****       this->msg = (char *)(inbuffer + offset-1);
  57:./ros_lib/rosserial_msgs/Log.h ****       offset += length_msg;
  58:./ros_lib/rosserial_msgs/Log.h ****      return offset;
  59:./ros_lib/rosserial_msgs/Log.h ****     }
  60:./ros_lib/rosserial_msgs/Log.h **** 
  61:./ros_lib/rosserial_msgs/Log.h ****     virtual const char * getType() override { return "rosserial_msgs/Log"; };
 277               		.loc 3 61 0
 278               		.cfi_startproc
 279               	.LVL19:
 280               	/* prologue: function */
 281               	/* frame size = 0 */
 282               	/* stack size = 0 */
 283               	.L__stack_usage = 0
 284               		.loc 3 61 0
 285 0000 80E0      		ldi r24,lo8(.LC4)
 286 0002 90E0      		ldi r25,hi8(.LC4)
 287               	.LVL20:
 288 0004 0895      		ret
 289               		.cfi_endproc
 290               	.LFE49:
 292               		.section	.rodata.str1.1
 293               	.LC5:
 294 007c 3131 6162 		.string	"11abd731c25933261cd6183bd12d6295"
 294      6437 3331 
 294      6332 3539 
 294      3333 3236 
 294      3163 6436 
 295               		.section	.text._ZN14rosserial_msgs3Log6getMD5Ev,"axG",@progbits,_ZN14rosserial_msgs3Log6getMD5Ev,c
 296               		.weak	_ZN14rosserial_msgs3Log6getMD5Ev
 298               	_ZN14rosserial_msgs3Log6getMD5Ev:
 299               	.LFB50:
  62:./ros_lib/rosserial_msgs/Log.h ****     virtual const char * getMD5() override { return "11abd731c25933261cd6183bd12d6295"; };
 300               		.loc 3 62 0
 301               		.cfi_startproc
 302               	.LVL21:
 303               	/* prologue: function */
 304               	/* frame size = 0 */
 305               	/* stack size = 0 */
 306               	.L__stack_usage = 0
 307               		.loc 3 62 0
 308 0000 80E0      		ldi r24,lo8(.LC5)
 309 0002 90E0      		ldi r25,hi8(.LC5)
 310               	.LVL22:
 311 0004 0895      		ret
 312               		.cfi_endproc
 313               	.LFE50:
 315               		.section	.text._ZN14rosserial_msgs20RequestParamResponse7getTypeEv,"axG",@progbits,_ZN14rosserial_
 316               		.weak	_ZN14rosserial_msgs20RequestParamResponse7getTypeEv
 318               	_ZN14rosserial_msgs20RequestParamResponse7getTypeEv:
 319               	.LFB63:
 320               		.file 4 "./ros_lib/rosserial_msgs/RequestParam.h"
   1:./ros_lib/rosserial_msgs/RequestParam.h **** #ifndef _ROS_SERVICE_RequestParam_h
   2:./ros_lib/rosserial_msgs/RequestParam.h **** #define _ROS_SERVICE_RequestParam_h
   3:./ros_lib/rosserial_msgs/RequestParam.h **** #include <stdint.h>
   4:./ros_lib/rosserial_msgs/RequestParam.h **** #include <string.h>
   5:./ros_lib/rosserial_msgs/RequestParam.h **** #include <stdlib.h>
   6:./ros_lib/rosserial_msgs/RequestParam.h **** #include "ros/msg.h"
   7:./ros_lib/rosserial_msgs/RequestParam.h **** 
   8:./ros_lib/rosserial_msgs/RequestParam.h **** namespace rosserial_msgs
   9:./ros_lib/rosserial_msgs/RequestParam.h **** {
  10:./ros_lib/rosserial_msgs/RequestParam.h **** 
  11:./ros_lib/rosserial_msgs/RequestParam.h **** static const char REQUESTPARAM[] = "rosserial_msgs/RequestParam";
  12:./ros_lib/rosserial_msgs/RequestParam.h **** 
  13:./ros_lib/rosserial_msgs/RequestParam.h ****   class RequestParamRequest : public ros::Msg
  14:./ros_lib/rosserial_msgs/RequestParam.h ****   {
  15:./ros_lib/rosserial_msgs/RequestParam.h ****     public:
  16:./ros_lib/rosserial_msgs/RequestParam.h ****       typedef const char* _name_type;
  17:./ros_lib/rosserial_msgs/RequestParam.h ****       _name_type name;
  18:./ros_lib/rosserial_msgs/RequestParam.h **** 
  19:./ros_lib/rosserial_msgs/RequestParam.h ****     RequestParamRequest():
  20:./ros_lib/rosserial_msgs/RequestParam.h ****       name("")
  21:./ros_lib/rosserial_msgs/RequestParam.h ****     {
  22:./ros_lib/rosserial_msgs/RequestParam.h ****     }
  23:./ros_lib/rosserial_msgs/RequestParam.h **** 
  24:./ros_lib/rosserial_msgs/RequestParam.h ****     virtual int serialize(unsigned char *outbuffer) const override
  25:./ros_lib/rosserial_msgs/RequestParam.h ****     {
  26:./ros_lib/rosserial_msgs/RequestParam.h ****       int offset = 0;
  27:./ros_lib/rosserial_msgs/RequestParam.h ****       uint32_t length_name = strlen(this->name);
  28:./ros_lib/rosserial_msgs/RequestParam.h ****       varToArr(outbuffer + offset, length_name);
  29:./ros_lib/rosserial_msgs/RequestParam.h ****       offset += 4;
  30:./ros_lib/rosserial_msgs/RequestParam.h ****       memcpy(outbuffer + offset, this->name, length_name);
  31:./ros_lib/rosserial_msgs/RequestParam.h ****       offset += length_name;
  32:./ros_lib/rosserial_msgs/RequestParam.h ****       return offset;
  33:./ros_lib/rosserial_msgs/RequestParam.h ****     }
  34:./ros_lib/rosserial_msgs/RequestParam.h **** 
  35:./ros_lib/rosserial_msgs/RequestParam.h ****     virtual int deserialize(unsigned char *inbuffer) override
  36:./ros_lib/rosserial_msgs/RequestParam.h ****     {
  37:./ros_lib/rosserial_msgs/RequestParam.h ****       int offset = 0;
  38:./ros_lib/rosserial_msgs/RequestParam.h ****       uint32_t length_name;
  39:./ros_lib/rosserial_msgs/RequestParam.h ****       arrToVar(length_name, (inbuffer + offset));
  40:./ros_lib/rosserial_msgs/RequestParam.h ****       offset += 4;
  41:./ros_lib/rosserial_msgs/RequestParam.h ****       for(unsigned int k= offset; k< offset+length_name; ++k){
  42:./ros_lib/rosserial_msgs/RequestParam.h ****           inbuffer[k-1]=inbuffer[k];
  43:./ros_lib/rosserial_msgs/RequestParam.h ****       }
  44:./ros_lib/rosserial_msgs/RequestParam.h ****       inbuffer[offset+length_name-1]=0;
  45:./ros_lib/rosserial_msgs/RequestParam.h ****       this->name = (char *)(inbuffer + offset-1);
  46:./ros_lib/rosserial_msgs/RequestParam.h ****       offset += length_name;
  47:./ros_lib/rosserial_msgs/RequestParam.h ****      return offset;
  48:./ros_lib/rosserial_msgs/RequestParam.h ****     }
  49:./ros_lib/rosserial_msgs/RequestParam.h **** 
  50:./ros_lib/rosserial_msgs/RequestParam.h ****     virtual const char * getType() override { return REQUESTPARAM; };
  51:./ros_lib/rosserial_msgs/RequestParam.h ****     virtual const char * getMD5() override { return "c1f3d28f1b044c871e6eff2e9fc3c667"; };
  52:./ros_lib/rosserial_msgs/RequestParam.h **** 
  53:./ros_lib/rosserial_msgs/RequestParam.h ****   };
  54:./ros_lib/rosserial_msgs/RequestParam.h **** 
  55:./ros_lib/rosserial_msgs/RequestParam.h ****   class RequestParamResponse : public ros::Msg
  56:./ros_lib/rosserial_msgs/RequestParam.h ****   {
  57:./ros_lib/rosserial_msgs/RequestParam.h ****     public:
  58:./ros_lib/rosserial_msgs/RequestParam.h ****       uint32_t ints_length;
  59:./ros_lib/rosserial_msgs/RequestParam.h ****       typedef int32_t _ints_type;
  60:./ros_lib/rosserial_msgs/RequestParam.h ****       _ints_type st_ints;
  61:./ros_lib/rosserial_msgs/RequestParam.h ****       _ints_type * ints;
  62:./ros_lib/rosserial_msgs/RequestParam.h ****       uint32_t floats_length;
  63:./ros_lib/rosserial_msgs/RequestParam.h ****       typedef float _floats_type;
  64:./ros_lib/rosserial_msgs/RequestParam.h ****       _floats_type st_floats;
  65:./ros_lib/rosserial_msgs/RequestParam.h ****       _floats_type * floats;
  66:./ros_lib/rosserial_msgs/RequestParam.h ****       uint32_t strings_length;
  67:./ros_lib/rosserial_msgs/RequestParam.h ****       typedef char* _strings_type;
  68:./ros_lib/rosserial_msgs/RequestParam.h ****       _strings_type st_strings;
  69:./ros_lib/rosserial_msgs/RequestParam.h ****       _strings_type * strings;
  70:./ros_lib/rosserial_msgs/RequestParam.h **** 
  71:./ros_lib/rosserial_msgs/RequestParam.h ****     RequestParamResponse():
  72:./ros_lib/rosserial_msgs/RequestParam.h ****       ints_length(0), st_ints(), ints(nullptr),
  73:./ros_lib/rosserial_msgs/RequestParam.h ****       floats_length(0), st_floats(), floats(nullptr),
  74:./ros_lib/rosserial_msgs/RequestParam.h ****       strings_length(0), st_strings(), strings(nullptr)
  75:./ros_lib/rosserial_msgs/RequestParam.h ****     {
  76:./ros_lib/rosserial_msgs/RequestParam.h ****     }
  77:./ros_lib/rosserial_msgs/RequestParam.h **** 
  78:./ros_lib/rosserial_msgs/RequestParam.h ****     virtual int serialize(unsigned char *outbuffer) const override
  79:./ros_lib/rosserial_msgs/RequestParam.h ****     {
  80:./ros_lib/rosserial_msgs/RequestParam.h ****       int offset = 0;
  81:./ros_lib/rosserial_msgs/RequestParam.h ****       *(outbuffer + offset + 0) = (this->ints_length >> (8 * 0)) & 0xFF;
  82:./ros_lib/rosserial_msgs/RequestParam.h ****       *(outbuffer + offset + 1) = (this->ints_length >> (8 * 1)) & 0xFF;
  83:./ros_lib/rosserial_msgs/RequestParam.h ****       *(outbuffer + offset + 2) = (this->ints_length >> (8 * 2)) & 0xFF;
  84:./ros_lib/rosserial_msgs/RequestParam.h ****       *(outbuffer + offset + 3) = (this->ints_length >> (8 * 3)) & 0xFF;
  85:./ros_lib/rosserial_msgs/RequestParam.h ****       offset += sizeof(this->ints_length);
  86:./ros_lib/rosserial_msgs/RequestParam.h ****       for( uint32_t i = 0; i < ints_length; i++){
  87:./ros_lib/rosserial_msgs/RequestParam.h ****       union {
  88:./ros_lib/rosserial_msgs/RequestParam.h ****         int32_t real;
  89:./ros_lib/rosserial_msgs/RequestParam.h ****         uint32_t base;
  90:./ros_lib/rosserial_msgs/RequestParam.h ****       } u_intsi;
  91:./ros_lib/rosserial_msgs/RequestParam.h ****       u_intsi.real = this->ints[i];
  92:./ros_lib/rosserial_msgs/RequestParam.h ****       *(outbuffer + offset + 0) = (u_intsi.base >> (8 * 0)) & 0xFF;
  93:./ros_lib/rosserial_msgs/RequestParam.h ****       *(outbuffer + offset + 1) = (u_intsi.base >> (8 * 1)) & 0xFF;
  94:./ros_lib/rosserial_msgs/RequestParam.h ****       *(outbuffer + offset + 2) = (u_intsi.base >> (8 * 2)) & 0xFF;
  95:./ros_lib/rosserial_msgs/RequestParam.h ****       *(outbuffer + offset + 3) = (u_intsi.base >> (8 * 3)) & 0xFF;
  96:./ros_lib/rosserial_msgs/RequestParam.h ****       offset += sizeof(this->ints[i]);
  97:./ros_lib/rosserial_msgs/RequestParam.h ****       }
  98:./ros_lib/rosserial_msgs/RequestParam.h ****       *(outbuffer + offset + 0) = (this->floats_length >> (8 * 0)) & 0xFF;
  99:./ros_lib/rosserial_msgs/RequestParam.h ****       *(outbuffer + offset + 1) = (this->floats_length >> (8 * 1)) & 0xFF;
 100:./ros_lib/rosserial_msgs/RequestParam.h ****       *(outbuffer + offset + 2) = (this->floats_length >> (8 * 2)) & 0xFF;
 101:./ros_lib/rosserial_msgs/RequestParam.h ****       *(outbuffer + offset + 3) = (this->floats_length >> (8 * 3)) & 0xFF;
 102:./ros_lib/rosserial_msgs/RequestParam.h ****       offset += sizeof(this->floats_length);
 103:./ros_lib/rosserial_msgs/RequestParam.h ****       for( uint32_t i = 0; i < floats_length; i++){
 104:./ros_lib/rosserial_msgs/RequestParam.h ****       union {
 105:./ros_lib/rosserial_msgs/RequestParam.h ****         float real;
 106:./ros_lib/rosserial_msgs/RequestParam.h ****         uint32_t base;
 107:./ros_lib/rosserial_msgs/RequestParam.h ****       } u_floatsi;
 108:./ros_lib/rosserial_msgs/RequestParam.h ****       u_floatsi.real = this->floats[i];
 109:./ros_lib/rosserial_msgs/RequestParam.h ****       *(outbuffer + offset + 0) = (u_floatsi.base >> (8 * 0)) & 0xFF;
 110:./ros_lib/rosserial_msgs/RequestParam.h ****       *(outbuffer + offset + 1) = (u_floatsi.base >> (8 * 1)) & 0xFF;
 111:./ros_lib/rosserial_msgs/RequestParam.h ****       *(outbuffer + offset + 2) = (u_floatsi.base >> (8 * 2)) & 0xFF;
 112:./ros_lib/rosserial_msgs/RequestParam.h ****       *(outbuffer + offset + 3) = (u_floatsi.base >> (8 * 3)) & 0xFF;
 113:./ros_lib/rosserial_msgs/RequestParam.h ****       offset += sizeof(this->floats[i]);
 114:./ros_lib/rosserial_msgs/RequestParam.h ****       }
 115:./ros_lib/rosserial_msgs/RequestParam.h ****       *(outbuffer + offset + 0) = (this->strings_length >> (8 * 0)) & 0xFF;
 116:./ros_lib/rosserial_msgs/RequestParam.h ****       *(outbuffer + offset + 1) = (this->strings_length >> (8 * 1)) & 0xFF;
 117:./ros_lib/rosserial_msgs/RequestParam.h ****       *(outbuffer + offset + 2) = (this->strings_length >> (8 * 2)) & 0xFF;
 118:./ros_lib/rosserial_msgs/RequestParam.h ****       *(outbuffer + offset + 3) = (this->strings_length >> (8 * 3)) & 0xFF;
 119:./ros_lib/rosserial_msgs/RequestParam.h ****       offset += sizeof(this->strings_length);
 120:./ros_lib/rosserial_msgs/RequestParam.h ****       for( uint32_t i = 0; i < strings_length; i++){
 121:./ros_lib/rosserial_msgs/RequestParam.h ****       uint32_t length_stringsi = strlen(this->strings[i]);
 122:./ros_lib/rosserial_msgs/RequestParam.h ****       varToArr(outbuffer + offset, length_stringsi);
 123:./ros_lib/rosserial_msgs/RequestParam.h ****       offset += 4;
 124:./ros_lib/rosserial_msgs/RequestParam.h ****       memcpy(outbuffer + offset, this->strings[i], length_stringsi);
 125:./ros_lib/rosserial_msgs/RequestParam.h ****       offset += length_stringsi;
 126:./ros_lib/rosserial_msgs/RequestParam.h ****       }
 127:./ros_lib/rosserial_msgs/RequestParam.h ****       return offset;
 128:./ros_lib/rosserial_msgs/RequestParam.h ****     }
 129:./ros_lib/rosserial_msgs/RequestParam.h **** 
 130:./ros_lib/rosserial_msgs/RequestParam.h ****     virtual int deserialize(unsigned char *inbuffer) override
 131:./ros_lib/rosserial_msgs/RequestParam.h ****     {
 132:./ros_lib/rosserial_msgs/RequestParam.h ****       int offset = 0;
 133:./ros_lib/rosserial_msgs/RequestParam.h ****       uint32_t ints_lengthT = ((uint32_t) (*(inbuffer + offset))); 
 134:./ros_lib/rosserial_msgs/RequestParam.h ****       ints_lengthT |= ((uint32_t) (*(inbuffer + offset + 1))) << (8 * 1); 
 135:./ros_lib/rosserial_msgs/RequestParam.h ****       ints_lengthT |= ((uint32_t) (*(inbuffer + offset + 2))) << (8 * 2); 
 136:./ros_lib/rosserial_msgs/RequestParam.h ****       ints_lengthT |= ((uint32_t) (*(inbuffer + offset + 3))) << (8 * 3); 
 137:./ros_lib/rosserial_msgs/RequestParam.h ****       offset += sizeof(this->ints_length);
 138:./ros_lib/rosserial_msgs/RequestParam.h ****       if(ints_lengthT > ints_length)
 139:./ros_lib/rosserial_msgs/RequestParam.h ****         this->ints = (int32_t*)realloc(this->ints, ints_lengthT * sizeof(int32_t));
 140:./ros_lib/rosserial_msgs/RequestParam.h ****       ints_length = ints_lengthT;
 141:./ros_lib/rosserial_msgs/RequestParam.h ****       for( uint32_t i = 0; i < ints_length; i++){
 142:./ros_lib/rosserial_msgs/RequestParam.h ****       union {
 143:./ros_lib/rosserial_msgs/RequestParam.h ****         int32_t real;
 144:./ros_lib/rosserial_msgs/RequestParam.h ****         uint32_t base;
 145:./ros_lib/rosserial_msgs/RequestParam.h ****       } u_st_ints;
 146:./ros_lib/rosserial_msgs/RequestParam.h ****       u_st_ints.base = 0;
 147:./ros_lib/rosserial_msgs/RequestParam.h ****       u_st_ints.base |= ((uint32_t) (*(inbuffer + offset + 0))) << (8 * 0);
 148:./ros_lib/rosserial_msgs/RequestParam.h ****       u_st_ints.base |= ((uint32_t) (*(inbuffer + offset + 1))) << (8 * 1);
 149:./ros_lib/rosserial_msgs/RequestParam.h ****       u_st_ints.base |= ((uint32_t) (*(inbuffer + offset + 2))) << (8 * 2);
 150:./ros_lib/rosserial_msgs/RequestParam.h ****       u_st_ints.base |= ((uint32_t) (*(inbuffer + offset + 3))) << (8 * 3);
 151:./ros_lib/rosserial_msgs/RequestParam.h ****       this->st_ints = u_st_ints.real;
 152:./ros_lib/rosserial_msgs/RequestParam.h ****       offset += sizeof(this->st_ints);
 153:./ros_lib/rosserial_msgs/RequestParam.h ****         memcpy( &(this->ints[i]), &(this->st_ints), sizeof(int32_t));
 154:./ros_lib/rosserial_msgs/RequestParam.h ****       }
 155:./ros_lib/rosserial_msgs/RequestParam.h ****       uint32_t floats_lengthT = ((uint32_t) (*(inbuffer + offset))); 
 156:./ros_lib/rosserial_msgs/RequestParam.h ****       floats_lengthT |= ((uint32_t) (*(inbuffer + offset + 1))) << (8 * 1); 
 157:./ros_lib/rosserial_msgs/RequestParam.h ****       floats_lengthT |= ((uint32_t) (*(inbuffer + offset + 2))) << (8 * 2); 
 158:./ros_lib/rosserial_msgs/RequestParam.h ****       floats_lengthT |= ((uint32_t) (*(inbuffer + offset + 3))) << (8 * 3); 
 159:./ros_lib/rosserial_msgs/RequestParam.h ****       offset += sizeof(this->floats_length);
 160:./ros_lib/rosserial_msgs/RequestParam.h ****       if(floats_lengthT > floats_length)
 161:./ros_lib/rosserial_msgs/RequestParam.h ****         this->floats = (float*)realloc(this->floats, floats_lengthT * sizeof(float));
 162:./ros_lib/rosserial_msgs/RequestParam.h ****       floats_length = floats_lengthT;
 163:./ros_lib/rosserial_msgs/RequestParam.h ****       for( uint32_t i = 0; i < floats_length; i++){
 164:./ros_lib/rosserial_msgs/RequestParam.h ****       union {
 165:./ros_lib/rosserial_msgs/RequestParam.h ****         float real;
 166:./ros_lib/rosserial_msgs/RequestParam.h ****         uint32_t base;
 167:./ros_lib/rosserial_msgs/RequestParam.h ****       } u_st_floats;
 168:./ros_lib/rosserial_msgs/RequestParam.h ****       u_st_floats.base = 0;
 169:./ros_lib/rosserial_msgs/RequestParam.h ****       u_st_floats.base |= ((uint32_t) (*(inbuffer + offset + 0))) << (8 * 0);
 170:./ros_lib/rosserial_msgs/RequestParam.h ****       u_st_floats.base |= ((uint32_t) (*(inbuffer + offset + 1))) << (8 * 1);
 171:./ros_lib/rosserial_msgs/RequestParam.h ****       u_st_floats.base |= ((uint32_t) (*(inbuffer + offset + 2))) << (8 * 2);
 172:./ros_lib/rosserial_msgs/RequestParam.h ****       u_st_floats.base |= ((uint32_t) (*(inbuffer + offset + 3))) << (8 * 3);
 173:./ros_lib/rosserial_msgs/RequestParam.h ****       this->st_floats = u_st_floats.real;
 174:./ros_lib/rosserial_msgs/RequestParam.h ****       offset += sizeof(this->st_floats);
 175:./ros_lib/rosserial_msgs/RequestParam.h ****         memcpy( &(this->floats[i]), &(this->st_floats), sizeof(float));
 176:./ros_lib/rosserial_msgs/RequestParam.h ****       }
 177:./ros_lib/rosserial_msgs/RequestParam.h ****       uint32_t strings_lengthT = ((uint32_t) (*(inbuffer + offset))); 
 178:./ros_lib/rosserial_msgs/RequestParam.h ****       strings_lengthT |= ((uint32_t) (*(inbuffer + offset + 1))) << (8 * 1); 
 179:./ros_lib/rosserial_msgs/RequestParam.h ****       strings_lengthT |= ((uint32_t) (*(inbuffer + offset + 2))) << (8 * 2); 
 180:./ros_lib/rosserial_msgs/RequestParam.h ****       strings_lengthT |= ((uint32_t) (*(inbuffer + offset + 3))) << (8 * 3); 
 181:./ros_lib/rosserial_msgs/RequestParam.h ****       offset += sizeof(this->strings_length);
 182:./ros_lib/rosserial_msgs/RequestParam.h ****       if(strings_lengthT > strings_length)
 183:./ros_lib/rosserial_msgs/RequestParam.h ****         this->strings = (char**)realloc(this->strings, strings_lengthT * sizeof(char*));
 184:./ros_lib/rosserial_msgs/RequestParam.h ****       strings_length = strings_lengthT;
 185:./ros_lib/rosserial_msgs/RequestParam.h ****       for( uint32_t i = 0; i < strings_length; i++){
 186:./ros_lib/rosserial_msgs/RequestParam.h ****       uint32_t length_st_strings;
 187:./ros_lib/rosserial_msgs/RequestParam.h ****       arrToVar(length_st_strings, (inbuffer + offset));
 188:./ros_lib/rosserial_msgs/RequestParam.h ****       offset += 4;
 189:./ros_lib/rosserial_msgs/RequestParam.h ****       for(unsigned int k= offset; k< offset+length_st_strings; ++k){
 190:./ros_lib/rosserial_msgs/RequestParam.h ****           inbuffer[k-1]=inbuffer[k];
 191:./ros_lib/rosserial_msgs/RequestParam.h ****       }
 192:./ros_lib/rosserial_msgs/RequestParam.h ****       inbuffer[offset+length_st_strings-1]=0;
 193:./ros_lib/rosserial_msgs/RequestParam.h ****       this->st_strings = (char *)(inbuffer + offset-1);
 194:./ros_lib/rosserial_msgs/RequestParam.h ****       offset += length_st_strings;
 195:./ros_lib/rosserial_msgs/RequestParam.h ****         memcpy( &(this->strings[i]), &(this->st_strings), sizeof(char*));
 196:./ros_lib/rosserial_msgs/RequestParam.h ****       }
 197:./ros_lib/rosserial_msgs/RequestParam.h ****      return offset;
 198:./ros_lib/rosserial_msgs/RequestParam.h ****     }
 199:./ros_lib/rosserial_msgs/RequestParam.h **** 
 200:./ros_lib/rosserial_msgs/RequestParam.h ****     virtual const char * getType() override { return REQUESTPARAM; };
 321               		.loc 4 200 0
 322               		.cfi_startproc
 323               	.LVL23:
 324               	/* prologue: function */
 325               	/* frame size = 0 */
 326               	/* stack size = 0 */
 327               	.L__stack_usage = 0
 328               		.loc 4 200 0
 329 0000 80E0      		ldi r24,lo8(_ZN14rosserial_msgsL12REQUESTPARAME)
 330 0002 90E0      		ldi r25,hi8(_ZN14rosserial_msgsL12REQUESTPARAME)
 331               	.LVL24:
 332 0004 0895      		ret
 333               		.cfi_endproc
 334               	.LFE63:
 336               		.section	.rodata.str1.1
 337               	.LC6:
 338 009d 3966 3065 		.string	"9f0e98bda65981986ddf53afa7a40e49"
 338      3938 6264 
 338      6136 3539 
 338      3831 3938 
 338      3664 6466 
 339               		.section	.text._ZN14rosserial_msgs20RequestParamResponse6getMD5Ev,"axG",@progbits,_ZN14rosserial_m
 340               		.weak	_ZN14rosserial_msgs20RequestParamResponse6getMD5Ev
 342               	_ZN14rosserial_msgs20RequestParamResponse6getMD5Ev:
 343               	.LFB64:
 201:./ros_lib/rosserial_msgs/RequestParam.h ****     virtual const char * getMD5() override { return "9f0e98bda65981986ddf53afa7a40e49"; };
 344               		.loc 4 201 0
 345               		.cfi_startproc
 346               	.LVL25:
 347               	/* prologue: function */
 348               	/* frame size = 0 */
 349               	/* stack size = 0 */
 350               	.L__stack_usage = 0
 351               		.loc 4 201 0
 352 0000 80E0      		ldi r24,lo8(.LC6)
 353 0002 90E0      		ldi r25,hi8(.LC6)
 354               	.LVL26:
 355 0004 0895      		ret
 356               		.cfi_endproc
 357               	.LFE64:
 359               		.section	.rodata.str1.1
 360               	.LC7:
 361 00be 7374 645F 		.string	"std_msgs/MultiArrayDimension"
 361      6D73 6773 
 361      2F4D 756C 
 361      7469 4172 
 361      7261 7944 
 362               		.section	.text._ZN8std_msgs19MultiArrayDimension7getTypeEv,"axG",@progbits,_ZN8std_msgs19MultiArra
 363               		.weak	_ZN8std_msgs19MultiArrayDimension7getTypeEv
 365               	_ZN8std_msgs19MultiArrayDimension7getTypeEv:
 366               	.LFB151:
 367               		.file 5 "./ros_lib/std_msgs/MultiArrayDimension.h"
   1:./ros_lib/std_msgs/MultiArrayDimension.h **** #ifndef _ROS_std_msgs_MultiArrayDimension_h
   2:./ros_lib/std_msgs/MultiArrayDimension.h **** #define _ROS_std_msgs_MultiArrayDimension_h
   3:./ros_lib/std_msgs/MultiArrayDimension.h **** 
   4:./ros_lib/std_msgs/MultiArrayDimension.h **** #include <stdint.h>
   5:./ros_lib/std_msgs/MultiArrayDimension.h **** #include <string.h>
   6:./ros_lib/std_msgs/MultiArrayDimension.h **** #include <stdlib.h>
   7:./ros_lib/std_msgs/MultiArrayDimension.h **** #include "ros/msg.h"
   8:./ros_lib/std_msgs/MultiArrayDimension.h **** 
   9:./ros_lib/std_msgs/MultiArrayDimension.h **** namespace std_msgs
  10:./ros_lib/std_msgs/MultiArrayDimension.h **** {
  11:./ros_lib/std_msgs/MultiArrayDimension.h **** 
  12:./ros_lib/std_msgs/MultiArrayDimension.h ****   class MultiArrayDimension : public ros::Msg
  13:./ros_lib/std_msgs/MultiArrayDimension.h ****   {
  14:./ros_lib/std_msgs/MultiArrayDimension.h ****     public:
  15:./ros_lib/std_msgs/MultiArrayDimension.h ****       typedef const char* _label_type;
  16:./ros_lib/std_msgs/MultiArrayDimension.h ****       _label_type label;
  17:./ros_lib/std_msgs/MultiArrayDimension.h ****       typedef uint32_t _size_type;
  18:./ros_lib/std_msgs/MultiArrayDimension.h ****       _size_type size;
  19:./ros_lib/std_msgs/MultiArrayDimension.h ****       typedef uint32_t _stride_type;
  20:./ros_lib/std_msgs/MultiArrayDimension.h ****       _stride_type stride;
  21:./ros_lib/std_msgs/MultiArrayDimension.h **** 
  22:./ros_lib/std_msgs/MultiArrayDimension.h ****     MultiArrayDimension():
  23:./ros_lib/std_msgs/MultiArrayDimension.h ****       label(""),
  24:./ros_lib/std_msgs/MultiArrayDimension.h ****       size(0),
  25:./ros_lib/std_msgs/MultiArrayDimension.h ****       stride(0)
  26:./ros_lib/std_msgs/MultiArrayDimension.h ****     {
  27:./ros_lib/std_msgs/MultiArrayDimension.h ****     }
  28:./ros_lib/std_msgs/MultiArrayDimension.h **** 
  29:./ros_lib/std_msgs/MultiArrayDimension.h ****     virtual int serialize(unsigned char *outbuffer) const override
  30:./ros_lib/std_msgs/MultiArrayDimension.h ****     {
  31:./ros_lib/std_msgs/MultiArrayDimension.h ****       int offset = 0;
  32:./ros_lib/std_msgs/MultiArrayDimension.h ****       uint32_t length_label = strlen(this->label);
  33:./ros_lib/std_msgs/MultiArrayDimension.h ****       varToArr(outbuffer + offset, length_label);
  34:./ros_lib/std_msgs/MultiArrayDimension.h ****       offset += 4;
  35:./ros_lib/std_msgs/MultiArrayDimension.h ****       memcpy(outbuffer + offset, this->label, length_label);
  36:./ros_lib/std_msgs/MultiArrayDimension.h ****       offset += length_label;
  37:./ros_lib/std_msgs/MultiArrayDimension.h ****       *(outbuffer + offset + 0) = (this->size >> (8 * 0)) & 0xFF;
  38:./ros_lib/std_msgs/MultiArrayDimension.h ****       *(outbuffer + offset + 1) = (this->size >> (8 * 1)) & 0xFF;
  39:./ros_lib/std_msgs/MultiArrayDimension.h ****       *(outbuffer + offset + 2) = (this->size >> (8 * 2)) & 0xFF;
  40:./ros_lib/std_msgs/MultiArrayDimension.h ****       *(outbuffer + offset + 3) = (this->size >> (8 * 3)) & 0xFF;
  41:./ros_lib/std_msgs/MultiArrayDimension.h ****       offset += sizeof(this->size);
  42:./ros_lib/std_msgs/MultiArrayDimension.h ****       *(outbuffer + offset + 0) = (this->stride >> (8 * 0)) & 0xFF;
  43:./ros_lib/std_msgs/MultiArrayDimension.h ****       *(outbuffer + offset + 1) = (this->stride >> (8 * 1)) & 0xFF;
  44:./ros_lib/std_msgs/MultiArrayDimension.h ****       *(outbuffer + offset + 2) = (this->stride >> (8 * 2)) & 0xFF;
  45:./ros_lib/std_msgs/MultiArrayDimension.h ****       *(outbuffer + offset + 3) = (this->stride >> (8 * 3)) & 0xFF;
  46:./ros_lib/std_msgs/MultiArrayDimension.h ****       offset += sizeof(this->stride);
  47:./ros_lib/std_msgs/MultiArrayDimension.h ****       return offset;
  48:./ros_lib/std_msgs/MultiArrayDimension.h ****     }
  49:./ros_lib/std_msgs/MultiArrayDimension.h **** 
  50:./ros_lib/std_msgs/MultiArrayDimension.h ****     virtual int deserialize(unsigned char *inbuffer) override
  51:./ros_lib/std_msgs/MultiArrayDimension.h ****     {
  52:./ros_lib/std_msgs/MultiArrayDimension.h ****       int offset = 0;
  53:./ros_lib/std_msgs/MultiArrayDimension.h ****       uint32_t length_label;
  54:./ros_lib/std_msgs/MultiArrayDimension.h ****       arrToVar(length_label, (inbuffer + offset));
  55:./ros_lib/std_msgs/MultiArrayDimension.h ****       offset += 4;
  56:./ros_lib/std_msgs/MultiArrayDimension.h ****       for(unsigned int k= offset; k< offset+length_label; ++k){
  57:./ros_lib/std_msgs/MultiArrayDimension.h ****           inbuffer[k-1]=inbuffer[k];
  58:./ros_lib/std_msgs/MultiArrayDimension.h ****       }
  59:./ros_lib/std_msgs/MultiArrayDimension.h ****       inbuffer[offset+length_label-1]=0;
  60:./ros_lib/std_msgs/MultiArrayDimension.h ****       this->label = (char *)(inbuffer + offset-1);
  61:./ros_lib/std_msgs/MultiArrayDimension.h ****       offset += length_label;
  62:./ros_lib/std_msgs/MultiArrayDimension.h ****       this->size =  ((uint32_t) (*(inbuffer + offset)));
  63:./ros_lib/std_msgs/MultiArrayDimension.h ****       this->size |= ((uint32_t) (*(inbuffer + offset + 1))) << (8 * 1);
  64:./ros_lib/std_msgs/MultiArrayDimension.h ****       this->size |= ((uint32_t) (*(inbuffer + offset + 2))) << (8 * 2);
  65:./ros_lib/std_msgs/MultiArrayDimension.h ****       this->size |= ((uint32_t) (*(inbuffer + offset + 3))) << (8 * 3);
  66:./ros_lib/std_msgs/MultiArrayDimension.h ****       offset += sizeof(this->size);
  67:./ros_lib/std_msgs/MultiArrayDimension.h ****       this->stride =  ((uint32_t) (*(inbuffer + offset)));
  68:./ros_lib/std_msgs/MultiArrayDimension.h ****       this->stride |= ((uint32_t) (*(inbuffer + offset + 1))) << (8 * 1);
  69:./ros_lib/std_msgs/MultiArrayDimension.h ****       this->stride |= ((uint32_t) (*(inbuffer + offset + 2))) << (8 * 2);
  70:./ros_lib/std_msgs/MultiArrayDimension.h ****       this->stride |= ((uint32_t) (*(inbuffer + offset + 3))) << (8 * 3);
  71:./ros_lib/std_msgs/MultiArrayDimension.h ****       offset += sizeof(this->stride);
  72:./ros_lib/std_msgs/MultiArrayDimension.h ****      return offset;
  73:./ros_lib/std_msgs/MultiArrayDimension.h ****     }
  74:./ros_lib/std_msgs/MultiArrayDimension.h **** 
  75:./ros_lib/std_msgs/MultiArrayDimension.h ****     virtual const char * getType() override { return "std_msgs/MultiArrayDimension"; };
 368               		.loc 5 75 0
 369               		.cfi_startproc
 370               	.LVL27:
 371               	/* prologue: function */
 372               	/* frame size = 0 */
 373               	/* stack size = 0 */
 374               	.L__stack_usage = 0
 375               		.loc 5 75 0
 376 0000 80E0      		ldi r24,lo8(.LC7)
 377 0002 90E0      		ldi r25,hi8(.LC7)
 378               	.LVL28:
 379 0004 0895      		ret
 380               		.cfi_endproc
 381               	.LFE151:
 383               		.section	.rodata.str1.1
 384               	.LC8:
 385 00db 3463 6430 		.string	"4cd0c83a8683deae40ecdac60e53bfa8"
 385      6338 3361 
 385      3836 3833 
 385      6465 6165 
 385      3430 6563 
 386               		.section	.text._ZN8std_msgs19MultiArrayDimension6getMD5Ev,"axG",@progbits,_ZN8std_msgs19MultiArray
 387               		.weak	_ZN8std_msgs19MultiArrayDimension6getMD5Ev
 389               	_ZN8std_msgs19MultiArrayDimension6getMD5Ev:
 390               	.LFB152:
  76:./ros_lib/std_msgs/MultiArrayDimension.h ****     virtual const char * getMD5() override { return "4cd0c83a8683deae40ecdac60e53bfa8"; };
 391               		.loc 5 76 0
 392               		.cfi_startproc
 393               	.LVL29:
 394               	/* prologue: function */
 395               	/* frame size = 0 */
 396               	/* stack size = 0 */
 397               	.L__stack_usage = 0
 398               		.loc 5 76 0
 399 0000 80E0      		ldi r24,lo8(.LC8)
 400 0002 90E0      		ldi r25,hi8(.LC8)
 401               	.LVL30:
 402 0004 0895      		ret
 403               		.cfi_endproc
 404               	.LFE152:
 406               		.section	.text._ZNK8std_msgs16MultiArrayLayout9serializeEPh,"axG",@progbits,_ZNK8std_msgs16MultiAr
 407               		.weak	_ZNK8std_msgs16MultiArrayLayout9serializeEPh
 409               	_ZNK8std_msgs16MultiArrayLayout9serializeEPh:
 410               	.LFB156:
 411               		.file 6 "./ros_lib/std_msgs/MultiArrayLayout.h"
   1:./ros_lib/std_msgs/MultiArrayLayout.h **** #ifndef _ROS_std_msgs_MultiArrayLayout_h
   2:./ros_lib/std_msgs/MultiArrayLayout.h **** #define _ROS_std_msgs_MultiArrayLayout_h
   3:./ros_lib/std_msgs/MultiArrayLayout.h **** 
   4:./ros_lib/std_msgs/MultiArrayLayout.h **** #include <stdint.h>
   5:./ros_lib/std_msgs/MultiArrayLayout.h **** #include <string.h>
   6:./ros_lib/std_msgs/MultiArrayLayout.h **** #include <stdlib.h>
   7:./ros_lib/std_msgs/MultiArrayLayout.h **** #include "ros/msg.h"
   8:./ros_lib/std_msgs/MultiArrayLayout.h **** #include "std_msgs/MultiArrayDimension.h"
   9:./ros_lib/std_msgs/MultiArrayLayout.h **** 
  10:./ros_lib/std_msgs/MultiArrayLayout.h **** namespace std_msgs
  11:./ros_lib/std_msgs/MultiArrayLayout.h **** {
  12:./ros_lib/std_msgs/MultiArrayLayout.h **** 
  13:./ros_lib/std_msgs/MultiArrayLayout.h ****   class MultiArrayLayout : public ros::Msg
  14:./ros_lib/std_msgs/MultiArrayLayout.h ****   {
  15:./ros_lib/std_msgs/MultiArrayLayout.h ****     public:
  16:./ros_lib/std_msgs/MultiArrayLayout.h ****       uint32_t dim_length;
  17:./ros_lib/std_msgs/MultiArrayLayout.h ****       typedef std_msgs::MultiArrayDimension _dim_type;
  18:./ros_lib/std_msgs/MultiArrayLayout.h ****       _dim_type st_dim;
  19:./ros_lib/std_msgs/MultiArrayLayout.h ****       _dim_type * dim;
  20:./ros_lib/std_msgs/MultiArrayLayout.h ****       typedef uint32_t _data_offset_type;
  21:./ros_lib/std_msgs/MultiArrayLayout.h ****       _data_offset_type data_offset;
  22:./ros_lib/std_msgs/MultiArrayLayout.h **** 
  23:./ros_lib/std_msgs/MultiArrayLayout.h ****     MultiArrayLayout():
  24:./ros_lib/std_msgs/MultiArrayLayout.h ****       dim_length(0), st_dim(), dim(nullptr),
  25:./ros_lib/std_msgs/MultiArrayLayout.h ****       data_offset(0)
  26:./ros_lib/std_msgs/MultiArrayLayout.h ****     {
  27:./ros_lib/std_msgs/MultiArrayLayout.h ****     }
  28:./ros_lib/std_msgs/MultiArrayLayout.h **** 
  29:./ros_lib/std_msgs/MultiArrayLayout.h ****     virtual int serialize(unsigned char *outbuffer) const override
 412               		.loc 6 29 0
 413               		.cfi_startproc
 414               	.LVL31:
 415 0000 8F92      		push r8
 416               	.LCFI0:
 417               		.cfi_def_cfa_offset 4
 418               		.cfi_offset 8, -3
 419 0002 9F92      		push r9
 420               	.LCFI1:
 421               		.cfi_def_cfa_offset 5
 422               		.cfi_offset 9, -4
 423 0004 AF92      		push r10
 424               	.LCFI2:
 425               		.cfi_def_cfa_offset 6
 426               		.cfi_offset 10, -5
 427 0006 BF92      		push r11
 428               	.LCFI3:
 429               		.cfi_def_cfa_offset 7
 430               		.cfi_offset 11, -6
 431 0008 CF92      		push r12
 432               	.LCFI4:
 433               		.cfi_def_cfa_offset 8
 434               		.cfi_offset 12, -7
 435 000a DF92      		push r13
 436               	.LCFI5:
 437               		.cfi_def_cfa_offset 9
 438               		.cfi_offset 13, -8
 439 000c EF92      		push r14
 440               	.LCFI6:
 441               		.cfi_def_cfa_offset 10
 442               		.cfi_offset 14, -9
 443 000e FF92      		push r15
 444               	.LCFI7:
 445               		.cfi_def_cfa_offset 11
 446               		.cfi_offset 15, -10
 447 0010 0F93      		push r16
 448               	.LCFI8:
 449               		.cfi_def_cfa_offset 12
 450               		.cfi_offset 16, -11
 451 0012 1F93      		push r17
 452               	.LCFI9:
 453               		.cfi_def_cfa_offset 13
 454               		.cfi_offset 17, -12
 455 0014 CF93      		push r28
 456               	.LCFI10:
 457               		.cfi_def_cfa_offset 14
 458               		.cfi_offset 28, -13
 459 0016 DF93      		push r29
 460               	.LCFI11:
 461               		.cfi_def_cfa_offset 15
 462               		.cfi_offset 29, -14
 463               	/* prologue: function */
 464               	/* frame size = 0 */
 465               	/* stack size = 12 */
 466               	.L__stack_usage = 12
 467 0018 EC01      		movw r28,r24
 468 001a 8B01      		movw r16,r22
 469               	.LVL32:
  30:./ros_lib/std_msgs/MultiArrayLayout.h ****     {
  31:./ros_lib/std_msgs/MultiArrayLayout.h ****       int offset = 0;
  32:./ros_lib/std_msgs/MultiArrayLayout.h ****       *(outbuffer + offset + 0) = (this->dim_length >> (8 * 0)) & 0xFF;
 470               		.loc 6 32 0
 471 001c 8A81      		ldd r24,Y+2
 472               	.LVL33:
 473 001e FB01      		movw r30,r22
 474 0020 8083      		st Z,r24
  33:./ros_lib/std_msgs/MultiArrayLayout.h ****       *(outbuffer + offset + 1) = (this->dim_length >> (8 * 1)) & 0xFF;
 475               		.loc 6 33 0
 476 0022 8B81      		ldd r24,Y+3
 477 0024 8183      		std Z+1,r24
  34:./ros_lib/std_msgs/MultiArrayLayout.h ****       *(outbuffer + offset + 2) = (this->dim_length >> (8 * 2)) & 0xFF;
 478               		.loc 6 34 0
 479 0026 8C81      		ldd r24,Y+4
 480 0028 8283      		std Z+2,r24
  35:./ros_lib/std_msgs/MultiArrayLayout.h ****       *(outbuffer + offset + 3) = (this->dim_length >> (8 * 3)) & 0xFF;
 481               		.loc 6 35 0
 482 002a 8D81      		ldd r24,Y+5
 483 002c 8383      		std Z+3,r24
 484               	.LVL34:
 485 002e C12C      		mov r12,__zero_reg__
 486 0030 D12C      		mov r13,__zero_reg__
 487               	.LBB87:
  36:./ros_lib/std_msgs/MultiArrayLayout.h ****       offset += sizeof(this->dim_length);
  37:./ros_lib/std_msgs/MultiArrayLayout.h ****       for( uint32_t i = 0; i < dim_length; i++){
 488               		.loc 6 37 0
 489 0032 812C      		mov r8,__zero_reg__
 490 0034 912C      		mov r9,__zero_reg__
 491 0036 5401      		movw r10,r8
 492               	.LBE87:
  36:./ros_lib/std_msgs/MultiArrayLayout.h ****       offset += sizeof(this->dim_length);
 493               		.loc 6 36 0
 494 0038 84E0      		ldi r24,lo8(4)
 495 003a E82E      		mov r14,r24
 496 003c F12C      		mov r15,__zero_reg__
 497               	.LVL35:
 498               	.L15:
 499               	.LBB88:
 500               		.loc 6 37 0 discriminator 3
 501 003e 4A81      		ldd r20,Y+2
 502 0040 5B81      		ldd r21,Y+3
 503 0042 6C81      		ldd r22,Y+4
 504 0044 7D81      		ldd r23,Y+5
 505 0046 D801      		movw r26,r16
 506 0048 AE0D      		add r26,r14
 507 004a BF1D      		adc r27,r15
 508 004c 8416      		cp r8,r20
 509 004e 9506      		cpc r9,r21
 510 0050 A606      		cpc r10,r22
 511 0052 B706      		cpc r11,r23
 512 0054 00F4      		brsh .L14
  38:./ros_lib/std_msgs/MultiArrayLayout.h ****       offset += this->dim[i].serialize(outbuffer + offset);
 513               		.loc 6 38 0 discriminator 2
 514 0056 8A89      		ldd r24,Y+18
 515 0058 9B89      		ldd r25,Y+19
 516 005a 8C0D      		add r24,r12
 517 005c 9D1D      		adc r25,r13
 518 005e FC01      		movw r30,r24
 519 0060 2081      		ld r18,Z
 520 0062 3181      		ldd r19,Z+1
 521 0064 F901      		movw r30,r18
 522 0066 2081      		ld r18,Z
 523 0068 3181      		ldd r19,Z+1
 524 006a BD01      		movw r22,r26
 525 006c F901      		movw r30,r18
 526 006e 1995      		eicall
 527               	.LVL36:
 528 0070 E80E      		add r14,r24
 529 0072 F91E      		adc r15,r25
 530               	.LVL37:
  37:./ros_lib/std_msgs/MultiArrayLayout.h ****       offset += this->dim[i].serialize(outbuffer + offset);
 531               		.loc 6 37 0 discriminator 2
 532 0074 FFEF      		ldi r31,-1
 533 0076 8F1A      		sub r8,r31
 534 0078 9F0A      		sbc r9,r31
 535 007a AF0A      		sbc r10,r31
 536 007c BF0A      		sbc r11,r31
 537               	.LVL38:
 538 007e 8CE0      		ldi r24,12
 539 0080 C80E      		add r12,r24
 540 0082 D11C      		adc r13,__zero_reg__
 541 0084 00C0      		rjmp .L15
 542               	.L14:
 543               	.LBE88:
  39:./ros_lib/std_msgs/MultiArrayLayout.h ****       }
  40:./ros_lib/std_msgs/MultiArrayLayout.h ****       *(outbuffer + offset + 0) = (this->data_offset >> (8 * 0)) & 0xFF;
 544               		.loc 6 40 0
 545 0086 8C89      		ldd r24,Y+20
 546 0088 8C93      		st X,r24
  41:./ros_lib/std_msgs/MultiArrayLayout.h ****       *(outbuffer + offset + 1) = (this->data_offset >> (8 * 1)) & 0xFF;
 547               		.loc 6 41 0
 548 008a 8D89      		ldd r24,Y+21
 549 008c 1196      		adiw r26,1
 550 008e 8C93      		st X,r24
 551 0090 1197      		sbiw r26,1
  42:./ros_lib/std_msgs/MultiArrayLayout.h ****       *(outbuffer + offset + 2) = (this->data_offset >> (8 * 2)) & 0xFF;
 552               		.loc 6 42 0
 553 0092 8E89      		ldd r24,Y+22
 554 0094 1296      		adiw r26,2
 555 0096 8C93      		st X,r24
 556 0098 1297      		sbiw r26,2
  43:./ros_lib/std_msgs/MultiArrayLayout.h ****       *(outbuffer + offset + 3) = (this->data_offset >> (8 * 3)) & 0xFF;
 557               		.loc 6 43 0
 558 009a 8F89      		ldd r24,Y+23
 559 009c 1396      		adiw r26,3
 560 009e 8C93      		st X,r24
 561               	.LVL39:
  44:./ros_lib/std_msgs/MultiArrayLayout.h ****       offset += sizeof(this->data_offset);
  45:./ros_lib/std_msgs/MultiArrayLayout.h ****       return offset;
  46:./ros_lib/std_msgs/MultiArrayLayout.h ****     }
 562               		.loc 6 46 0
 563 00a0 C701      		movw r24,r14
 564 00a2 0496      		adiw r24,4
 565               	.LVL40:
 566               	/* epilogue start */
 567 00a4 DF91      		pop r29
 568 00a6 CF91      		pop r28
 569               	.LVL41:
 570 00a8 1F91      		pop r17
 571 00aa 0F91      		pop r16
 572               	.LVL42:
 573 00ac FF90      		pop r15
 574 00ae EF90      		pop r14
 575 00b0 DF90      		pop r13
 576 00b2 CF90      		pop r12
 577 00b4 BF90      		pop r11
 578 00b6 AF90      		pop r10
 579 00b8 9F90      		pop r9
 580 00ba 8F90      		pop r8
 581               	.LVL43:
 582 00bc 0895      		ret
 583               		.cfi_endproc
 584               	.LFE156:
 586               		.section	.rodata.str1.1
 587               	.LC9:
 588 00fc 7374 645F 		.string	"std_msgs/MultiArrayLayout"
 588      6D73 6773 
 588      2F4D 756C 
 588      7469 4172 
 588      7261 794C 
 589               		.section	.text._ZN8std_msgs16MultiArrayLayout7getTypeEv,"axG",@progbits,_ZN8std_msgs16MultiArrayLa
 590               		.weak	_ZN8std_msgs16MultiArrayLayout7getTypeEv
 592               	_ZN8std_msgs16MultiArrayLayout7getTypeEv:
 593               	.LFB158:
  47:./ros_lib/std_msgs/MultiArrayLayout.h **** 
  48:./ros_lib/std_msgs/MultiArrayLayout.h ****     virtual int deserialize(unsigned char *inbuffer) override
  49:./ros_lib/std_msgs/MultiArrayLayout.h ****     {
  50:./ros_lib/std_msgs/MultiArrayLayout.h ****       int offset = 0;
  51:./ros_lib/std_msgs/MultiArrayLayout.h ****       uint32_t dim_lengthT = ((uint32_t) (*(inbuffer + offset))); 
  52:./ros_lib/std_msgs/MultiArrayLayout.h ****       dim_lengthT |= ((uint32_t) (*(inbuffer + offset + 1))) << (8 * 1); 
  53:./ros_lib/std_msgs/MultiArrayLayout.h ****       dim_lengthT |= ((uint32_t) (*(inbuffer + offset + 2))) << (8 * 2); 
  54:./ros_lib/std_msgs/MultiArrayLayout.h ****       dim_lengthT |= ((uint32_t) (*(inbuffer + offset + 3))) << (8 * 3); 
  55:./ros_lib/std_msgs/MultiArrayLayout.h ****       offset += sizeof(this->dim_length);
  56:./ros_lib/std_msgs/MultiArrayLayout.h ****       if(dim_lengthT > dim_length)
  57:./ros_lib/std_msgs/MultiArrayLayout.h ****         this->dim = (std_msgs::MultiArrayDimension*)realloc(this->dim, dim_lengthT * sizeof(std_msg
  58:./ros_lib/std_msgs/MultiArrayLayout.h ****       dim_length = dim_lengthT;
  59:./ros_lib/std_msgs/MultiArrayLayout.h ****       for( uint32_t i = 0; i < dim_length; i++){
  60:./ros_lib/std_msgs/MultiArrayLayout.h ****       offset += this->st_dim.deserialize(inbuffer + offset);
  61:./ros_lib/std_msgs/MultiArrayLayout.h ****         memcpy( &(this->dim[i]), &(this->st_dim), sizeof(std_msgs::MultiArrayDimension));
  62:./ros_lib/std_msgs/MultiArrayLayout.h ****       }
  63:./ros_lib/std_msgs/MultiArrayLayout.h ****       this->data_offset =  ((uint32_t) (*(inbuffer + offset)));
  64:./ros_lib/std_msgs/MultiArrayLayout.h ****       this->data_offset |= ((uint32_t) (*(inbuffer + offset + 1))) << (8 * 1);
  65:./ros_lib/std_msgs/MultiArrayLayout.h ****       this->data_offset |= ((uint32_t) (*(inbuffer + offset + 2))) << (8 * 2);
  66:./ros_lib/std_msgs/MultiArrayLayout.h ****       this->data_offset |= ((uint32_t) (*(inbuffer + offset + 3))) << (8 * 3);
  67:./ros_lib/std_msgs/MultiArrayLayout.h ****       offset += sizeof(this->data_offset);
  68:./ros_lib/std_msgs/MultiArrayLayout.h ****      return offset;
  69:./ros_lib/std_msgs/MultiArrayLayout.h ****     }
  70:./ros_lib/std_msgs/MultiArrayLayout.h **** 
  71:./ros_lib/std_msgs/MultiArrayLayout.h ****     virtual const char * getType() override { return "std_msgs/MultiArrayLayout"; };
 594               		.loc 6 71 0
 595               		.cfi_startproc
 596               	.LVL44:
 597               	/* prologue: function */
 598               	/* frame size = 0 */
 599               	/* stack size = 0 */
 600               	.L__stack_usage = 0
 601               		.loc 6 71 0
 602 0000 80E0      		ldi r24,lo8(.LC9)
 603 0002 90E0      		ldi r25,hi8(.LC9)
 604               	.LVL45:
 605 0004 0895      		ret
 606               		.cfi_endproc
 607               	.LFE158:
 609               		.section	.rodata.str1.1
 610               	.LC10:
 611 0116 3066 6564 		.string	"0fed2a11c13e11c5571b4e2a995a91a3"
 611      3261 3131 
 611      6331 3365 
 611      3131 6335 
 611      3537 3162 
 612               		.section	.text._ZN8std_msgs16MultiArrayLayout6getMD5Ev,"axG",@progbits,_ZN8std_msgs16MultiArrayLay
 613               		.weak	_ZN8std_msgs16MultiArrayLayout6getMD5Ev
 615               	_ZN8std_msgs16MultiArrayLayout6getMD5Ev:
 616               	.LFB159:
  72:./ros_lib/std_msgs/MultiArrayLayout.h ****     virtual const char * getMD5() override { return "0fed2a11c13e11c5571b4e2a995a91a3"; };
 617               		.loc 6 72 0
 618               		.cfi_startproc
 619               	.LVL46:
 620               	/* prologue: function */
 621               	/* frame size = 0 */
 622               	/* stack size = 0 */
 623               	.L__stack_usage = 0
 624               		.loc 6 72 0
 625 0000 80E0      		ldi r24,lo8(.LC10)
 626 0002 90E0      		ldi r25,hi8(.LC10)
 627               	.LVL47:
 628 0004 0895      		ret
 629               		.cfi_endproc
 630               	.LFE159:
 632               		.section	.text._ZNK8std_msgs17Float32MultiArray9serializeEPh,"axG",@progbits,_ZNK8std_msgs17Float3
 633               		.weak	_ZNK8std_msgs17Float32MultiArray9serializeEPh
 635               	_ZNK8std_msgs17Float32MultiArray9serializeEPh:
 636               	.LFB163:
 637               		.file 7 "./ros_lib/std_msgs/Float32MultiArray.h"
   1:./ros_lib/std_msgs/Float32MultiArray.h **** #ifndef _ROS_std_msgs_Float32MultiArray_h
   2:./ros_lib/std_msgs/Float32MultiArray.h **** #define _ROS_std_msgs_Float32MultiArray_h
   3:./ros_lib/std_msgs/Float32MultiArray.h **** 
   4:./ros_lib/std_msgs/Float32MultiArray.h **** #include <stdint.h>
   5:./ros_lib/std_msgs/Float32MultiArray.h **** #include <string.h>
   6:./ros_lib/std_msgs/Float32MultiArray.h **** #include <stdlib.h>
   7:./ros_lib/std_msgs/Float32MultiArray.h **** #include "ros/msg.h"
   8:./ros_lib/std_msgs/Float32MultiArray.h **** #include "std_msgs/MultiArrayLayout.h"
   9:./ros_lib/std_msgs/Float32MultiArray.h **** 
  10:./ros_lib/std_msgs/Float32MultiArray.h **** namespace std_msgs
  11:./ros_lib/std_msgs/Float32MultiArray.h **** {
  12:./ros_lib/std_msgs/Float32MultiArray.h **** 
  13:./ros_lib/std_msgs/Float32MultiArray.h ****   class Float32MultiArray : public ros::Msg
  14:./ros_lib/std_msgs/Float32MultiArray.h ****   {
  15:./ros_lib/std_msgs/Float32MultiArray.h ****     public:
  16:./ros_lib/std_msgs/Float32MultiArray.h ****       typedef std_msgs::MultiArrayLayout _layout_type;
  17:./ros_lib/std_msgs/Float32MultiArray.h ****       _layout_type layout;
  18:./ros_lib/std_msgs/Float32MultiArray.h ****       uint32_t data_length;
  19:./ros_lib/std_msgs/Float32MultiArray.h ****       typedef float _data_type;
  20:./ros_lib/std_msgs/Float32MultiArray.h ****       _data_type st_data;
  21:./ros_lib/std_msgs/Float32MultiArray.h ****       _data_type * data;
  22:./ros_lib/std_msgs/Float32MultiArray.h **** 
  23:./ros_lib/std_msgs/Float32MultiArray.h ****     Float32MultiArray():
  24:./ros_lib/std_msgs/Float32MultiArray.h ****       layout(),
  25:./ros_lib/std_msgs/Float32MultiArray.h ****       data_length(0), st_data(), data(nullptr)
  26:./ros_lib/std_msgs/Float32MultiArray.h ****     {
  27:./ros_lib/std_msgs/Float32MultiArray.h ****     }
  28:./ros_lib/std_msgs/Float32MultiArray.h **** 
  29:./ros_lib/std_msgs/Float32MultiArray.h ****     virtual int serialize(unsigned char *outbuffer) const override
 638               		.loc 7 29 0
 639               		.cfi_startproc
 640               	.LVL48:
 641 0000 CF92      		push r12
 642               	.LCFI12:
 643               		.cfi_def_cfa_offset 4
 644               		.cfi_offset 12, -3
 645 0002 DF92      		push r13
 646               	.LCFI13:
 647               		.cfi_def_cfa_offset 5
 648               		.cfi_offset 13, -4
 649 0004 FF92      		push r15
 650               	.LCFI14:
 651               		.cfi_def_cfa_offset 6
 652               		.cfi_offset 15, -5
 653 0006 0F93      		push r16
 654               	.LCFI15:
 655               		.cfi_def_cfa_offset 7
 656               		.cfi_offset 16, -6
 657 0008 1F93      		push r17
 658               	.LCFI16:
 659               		.cfi_def_cfa_offset 8
 660               		.cfi_offset 17, -7
 661 000a CF93      		push r28
 662               	.LCFI17:
 663               		.cfi_def_cfa_offset 9
 664               		.cfi_offset 28, -8
 665 000c DF93      		push r29
 666               	.LCFI18:
 667               		.cfi_def_cfa_offset 10
 668               		.cfi_offset 29, -9
 669               	/* prologue: function */
 670               	/* frame size = 0 */
 671               	/* stack size = 7 */
 672               	.L__stack_usage = 7
 673 000e EC01      		movw r28,r24
 674 0010 8B01      		movw r16,r22
 675               	.LVL49:
  30:./ros_lib/std_msgs/Float32MultiArray.h ****     {
  31:./ros_lib/std_msgs/Float32MultiArray.h ****       int offset = 0;
  32:./ros_lib/std_msgs/Float32MultiArray.h ****       offset += this->layout.serialize(outbuffer + offset);
 676               		.loc 7 32 0
 677 0012 0296      		adiw r24,2
 678               	.LVL50:
 679 0014 0E94 0000 		call _ZNK8std_msgs16MultiArrayLayout9serializeEPh
 680               	.LVL51:
  33:./ros_lib/std_msgs/Float32MultiArray.h ****       *(outbuffer + offset + 0) = (this->data_length >> (8 * 0)) & 0xFF;
 681               		.loc 7 33 0
 682 0018 6801      		movw r12,r16
 683 001a C80E      		add r12,r24
 684 001c D91E      		adc r13,r25
 685 001e 2A8D      		ldd r18,Y+26
 686 0020 F601      		movw r30,r12
 687 0022 2083      		st Z,r18
  34:./ros_lib/std_msgs/Float32MultiArray.h ****       *(outbuffer + offset + 1) = (this->data_length >> (8 * 1)) & 0xFF;
 688               		.loc 7 34 0
 689 0024 2B8D      		ldd r18,Y+27
 690 0026 2183      		std Z+1,r18
  35:./ros_lib/std_msgs/Float32MultiArray.h ****       *(outbuffer + offset + 2) = (this->data_length >> (8 * 2)) & 0xFF;
 691               		.loc 7 35 0
 692 0028 2C8D      		ldd r18,Y+28
 693 002a 2283      		std Z+2,r18
  36:./ros_lib/std_msgs/Float32MultiArray.h ****       *(outbuffer + offset + 3) = (this->data_length >> (8 * 3)) & 0xFF;
 694               		.loc 7 36 0
 695 002c 2D8D      		ldd r18,Y+29
 696 002e 2383      		std Z+3,r18
  37:./ros_lib/std_msgs/Float32MultiArray.h ****       offset += sizeof(this->data_length);
 697               		.loc 7 37 0
 698 0030 0496      		adiw r24,4
 699               	.LVL52:
 700 0032 D601      		movw r26,r12
 701               	.LBB89:
  38:./ros_lib/std_msgs/Float32MultiArray.h ****       for( uint32_t i = 0; i < data_length; i++){
 702               		.loc 7 38 0
 703 0034 40E0      		ldi r20,0
 704 0036 50E0      		ldi r21,0
 705 0038 BA01      		movw r22,r20
 706               	.LVL53:
 707               	.L21:
 708               		.loc 7 38 0 is_stmt 0 discriminator 3
 709 003a 0A8D      		ldd r16,Y+26
 710 003c 1B8D      		ldd r17,Y+27
 711 003e 2C8D      		ldd r18,Y+28
 712 0040 3D8D      		ldd r19,Y+29
 713 0042 4017      		cp r20,r16
 714 0044 5107      		cpc r21,r17
 715 0046 6207      		cpc r22,r18
 716 0048 7307      		cpc r23,r19
 717 004a 00F4      		brsh .L20
 718               	.LVL54:
 719               	.LBB90:
  39:./ros_lib/std_msgs/Float32MultiArray.h ****       union {
  40:./ros_lib/std_msgs/Float32MultiArray.h ****         float real;
  41:./ros_lib/std_msgs/Float32MultiArray.h ****         uint32_t base;
  42:./ros_lib/std_msgs/Float32MultiArray.h ****       } u_datai;
  43:./ros_lib/std_msgs/Float32MultiArray.h ****       u_datai.real = this->data[i];
 720               		.loc 7 43 0 is_stmt 1 discriminator 2
 721 004c 9D01      		movw r18,r26
 722 004e 2C19      		sub r18,r12
 723 0050 3D09      		sbc r19,r13
 724 0052 0AA1      		ldd r16,Y+34
 725 0054 1BA1      		ldd r17,Y+35
 726 0056 200F      		add r18,r16
 727 0058 311F      		adc r19,r17
  44:./ros_lib/std_msgs/Float32MultiArray.h ****       *(outbuffer + offset + 0) = (u_datai.base >> (8 * 0)) & 0xFF;
 728               		.loc 7 44 0 discriminator 2
 729 005a F901      		movw r30,r18
 730 005c F080      		ld r15,Z
 731 005e 0181      		ldd r16,Z+1
 732 0060 1281      		ldd r17,Z+2
 733 0062 2381      		ldd r18,Z+3
 734 0064 1496      		adiw r26,4
 735 0066 FC92      		st X,r15
 736 0068 1497      		sbiw r26,4
  45:./ros_lib/std_msgs/Float32MultiArray.h ****       *(outbuffer + offset + 1) = (u_datai.base >> (8 * 1)) & 0xFF;
 737               		.loc 7 45 0 discriminator 2
 738 006a 1596      		adiw r26,5
 739 006c 0C93      		st X,r16
 740 006e 1597      		sbiw r26,5
  46:./ros_lib/std_msgs/Float32MultiArray.h ****       *(outbuffer + offset + 2) = (u_datai.base >> (8 * 2)) & 0xFF;
 741               		.loc 7 46 0 discriminator 2
 742 0070 1696      		adiw r26,6
 743 0072 1C93      		st X,r17
 744 0074 1697      		sbiw r26,6
  47:./ros_lib/std_msgs/Float32MultiArray.h ****       *(outbuffer + offset + 3) = (u_datai.base >> (8 * 3)) & 0xFF;
 745               		.loc 7 47 0 discriminator 2
 746 0076 1796      		adiw r26,7
 747 0078 2C93      		st X,r18
 748 007a 1797      		sbiw r26,7
 749 007c 0496      		adiw r24,4
 750               	.LVL55:
 751               	.LBE90:
  38:./ros_lib/std_msgs/Float32MultiArray.h ****       union {
 752               		.loc 7 38 0 discriminator 2
 753 007e 4F5F      		subi r20,-1
 754 0080 5F4F      		sbci r21,-1
 755 0082 6F4F      		sbci r22,-1
 756 0084 7F4F      		sbci r23,-1
 757               	.LVL56:
 758 0086 1496      		adiw r26,4
 759 0088 00C0      		rjmp .L21
 760               	.L20:
 761               	/* epilogue start */
 762               	.LBE89:
  48:./ros_lib/std_msgs/Float32MultiArray.h ****       offset += sizeof(this->data[i]);
  49:./ros_lib/std_msgs/Float32MultiArray.h ****       }
  50:./ros_lib/std_msgs/Float32MultiArray.h ****       return offset;
  51:./ros_lib/std_msgs/Float32MultiArray.h ****     }
 763               		.loc 7 51 0
 764 008a DF91      		pop r29
 765 008c CF91      		pop r28
 766               	.LVL57:
 767 008e 1F91      		pop r17
 768 0090 0F91      		pop r16
 769 0092 FF90      		pop r15
 770 0094 DF90      		pop r13
 771 0096 CF90      		pop r12
 772 0098 0895      		ret
 773               		.cfi_endproc
 774               	.LFE163:
 776               		.section	.rodata.str1.1
 777               	.LC11:
 778 0137 7374 645F 		.string	"std_msgs/Float32MultiArray"
 778      6D73 6773 
 778      2F46 6C6F 
 778      6174 3332 
 778      4D75 6C74 
 779               		.section	.text._ZN8std_msgs17Float32MultiArray7getTypeEv,"axG",@progbits,_ZN8std_msgs17Float32Mult
 780               		.weak	_ZN8std_msgs17Float32MultiArray7getTypeEv
 782               	_ZN8std_msgs17Float32MultiArray7getTypeEv:
 783               	.LFB165:
  52:./ros_lib/std_msgs/Float32MultiArray.h **** 
  53:./ros_lib/std_msgs/Float32MultiArray.h ****     virtual int deserialize(unsigned char *inbuffer) override
  54:./ros_lib/std_msgs/Float32MultiArray.h ****     {
  55:./ros_lib/std_msgs/Float32MultiArray.h ****       int offset = 0;
  56:./ros_lib/std_msgs/Float32MultiArray.h ****       offset += this->layout.deserialize(inbuffer + offset);
  57:./ros_lib/std_msgs/Float32MultiArray.h ****       uint32_t data_lengthT = ((uint32_t) (*(inbuffer + offset))); 
  58:./ros_lib/std_msgs/Float32MultiArray.h ****       data_lengthT |= ((uint32_t) (*(inbuffer + offset + 1))) << (8 * 1); 
  59:./ros_lib/std_msgs/Float32MultiArray.h ****       data_lengthT |= ((uint32_t) (*(inbuffer + offset + 2))) << (8 * 2); 
  60:./ros_lib/std_msgs/Float32MultiArray.h ****       data_lengthT |= ((uint32_t) (*(inbuffer + offset + 3))) << (8 * 3); 
  61:./ros_lib/std_msgs/Float32MultiArray.h ****       offset += sizeof(this->data_length);
  62:./ros_lib/std_msgs/Float32MultiArray.h ****       if(data_lengthT > data_length)
  63:./ros_lib/std_msgs/Float32MultiArray.h ****         this->data = (float*)realloc(this->data, data_lengthT * sizeof(float));
  64:./ros_lib/std_msgs/Float32MultiArray.h ****       data_length = data_lengthT;
  65:./ros_lib/std_msgs/Float32MultiArray.h ****       for( uint32_t i = 0; i < data_length; i++){
  66:./ros_lib/std_msgs/Float32MultiArray.h ****       union {
  67:./ros_lib/std_msgs/Float32MultiArray.h ****         float real;
  68:./ros_lib/std_msgs/Float32MultiArray.h ****         uint32_t base;
  69:./ros_lib/std_msgs/Float32MultiArray.h ****       } u_st_data;
  70:./ros_lib/std_msgs/Float32MultiArray.h ****       u_st_data.base = 0;
  71:./ros_lib/std_msgs/Float32MultiArray.h ****       u_st_data.base |= ((uint32_t) (*(inbuffer + offset + 0))) << (8 * 0);
  72:./ros_lib/std_msgs/Float32MultiArray.h ****       u_st_data.base |= ((uint32_t) (*(inbuffer + offset + 1))) << (8 * 1);
  73:./ros_lib/std_msgs/Float32MultiArray.h ****       u_st_data.base |= ((uint32_t) (*(inbuffer + offset + 2))) << (8 * 2);
  74:./ros_lib/std_msgs/Float32MultiArray.h ****       u_st_data.base |= ((uint32_t) (*(inbuffer + offset + 3))) << (8 * 3);
  75:./ros_lib/std_msgs/Float32MultiArray.h ****       this->st_data = u_st_data.real;
  76:./ros_lib/std_msgs/Float32MultiArray.h ****       offset += sizeof(this->st_data);
  77:./ros_lib/std_msgs/Float32MultiArray.h ****         memcpy( &(this->data[i]), &(this->st_data), sizeof(float));
  78:./ros_lib/std_msgs/Float32MultiArray.h ****       }
  79:./ros_lib/std_msgs/Float32MultiArray.h ****      return offset;
  80:./ros_lib/std_msgs/Float32MultiArray.h ****     }
  81:./ros_lib/std_msgs/Float32MultiArray.h **** 
  82:./ros_lib/std_msgs/Float32MultiArray.h ****     virtual const char * getType() override { return "std_msgs/Float32MultiArray"; };
 784               		.loc 7 82 0
 785               		.cfi_startproc
 786               	.LVL58:
 787               	/* prologue: function */
 788               	/* frame size = 0 */
 789               	/* stack size = 0 */
 790               	.L__stack_usage = 0
 791               		.loc 7 82 0
 792 0000 80E0      		ldi r24,lo8(.LC11)
 793 0002 90E0      		ldi r25,hi8(.LC11)
 794               	.LVL59:
 795 0004 0895      		ret
 796               		.cfi_endproc
 797               	.LFE165:
 799               		.section	.rodata.str1.1
 800               	.LC12:
 801 0152 3661 3430 		.string	"6a40e0ffa6a17a503ac3f8616991b1f6"
 801      6530 6666 
 801      6136 6131 
 801      3761 3530 
 801      3361 6333 
 802               		.section	.text._ZN8std_msgs17Float32MultiArray6getMD5Ev,"axG",@progbits,_ZN8std_msgs17Float32Multi
 803               		.weak	_ZN8std_msgs17Float32MultiArray6getMD5Ev
 805               	_ZN8std_msgs17Float32MultiArray6getMD5Ev:
 806               	.LFB166:
  83:./ros_lib/std_msgs/Float32MultiArray.h ****     virtual const char * getMD5() override { return "6a40e0ffa6a17a503ac3f8616991b1f6"; };
 807               		.loc 7 83 0
 808               		.cfi_startproc
 809               	.LVL60:
 810               	/* prologue: function */
 811               	/* frame size = 0 */
 812               	/* stack size = 0 */
 813               	.L__stack_usage = 0
 814               		.loc 7 83 0
 815 0000 80E0      		ldi r24,lo8(.LC12)
 816 0002 90E0      		ldi r25,hi8(.LC12)
 817               	.LVL61:
 818 0004 0895      		ret
 819               		.cfi_endproc
 820               	.LFE166:
 822               		.section	.text._ZN3ros10SubscriberIN8std_msgs17Float32MultiArrayEvE15getEndpointTypeEv,"axG",@prog
 823               		.weak	_ZN3ros10SubscriberIN8std_msgs17Float32MultiArrayEvE15getEndpointTypeEv
 825               	_ZN3ros10SubscriberIN8std_msgs17Float32MultiArrayEvE15getEndpointTypeEv:
 826               	.LFB196:
 827               		.file 8 "./ros_lib/ros/subscriber.h"
   1:./ros_lib/ros/subscriber.h **** /*
   2:./ros_lib/ros/subscriber.h ****  * Software License Agreement (BSD License)
   3:./ros_lib/ros/subscriber.h ****  *
   4:./ros_lib/ros/subscriber.h ****  * Copyright (c) 2011, Willow Garage, Inc.
   5:./ros_lib/ros/subscriber.h ****  * All rights reserved.
   6:./ros_lib/ros/subscriber.h ****  *
   7:./ros_lib/ros/subscriber.h ****  * Redistribution and use in source and binary forms, with or without
   8:./ros_lib/ros/subscriber.h ****  * modification, are permitted provided that the following conditions
   9:./ros_lib/ros/subscriber.h ****  * are met:
  10:./ros_lib/ros/subscriber.h ****  *
  11:./ros_lib/ros/subscriber.h ****  *  * Redistributions of source code must retain the above copyright
  12:./ros_lib/ros/subscriber.h ****  *    notice, this list of conditions and the following disclaimer.
  13:./ros_lib/ros/subscriber.h ****  *  * Redistributions in binary form must reproduce the above
  14:./ros_lib/ros/subscriber.h ****  *    copyright notice, this list of conditions and the following
  15:./ros_lib/ros/subscriber.h ****  *    disclaimer in the documentation and/or other materials provided
  16:./ros_lib/ros/subscriber.h ****  *    with the distribution.
  17:./ros_lib/ros/subscriber.h ****  *  * Neither the name of Willow Garage, Inc. nor the names of its
  18:./ros_lib/ros/subscriber.h ****  *    contributors may be used to endorse or promote prducts derived
  19:./ros_lib/ros/subscriber.h ****  *    from this software without specific prior written permission.
  20:./ros_lib/ros/subscriber.h ****  *
  21:./ros_lib/ros/subscriber.h ****  * THIS SOFTWARE IS PROVIDED BY THE COPYRIGHT HOLDERS AND CONTRIBUTORS
  22:./ros_lib/ros/subscriber.h ****  * "AS IS" AND ANY EXPRESS OR IMPLIED WARRANTIES, INCLUDING, BUT NOT
  23:./ros_lib/ros/subscriber.h ****  * LIMITED TO, THE IMPLIED WARRANTIES OF MERCHANTABILITY AND FITNESS
  24:./ros_lib/ros/subscriber.h ****  * FOR A PARTICULAR PURPOSE ARE DISCLAIMED. IN NO EVENT SHALL THE
  25:./ros_lib/ros/subscriber.h ****  * COPYRIGHT OWNER OR CONTRIBUTORS BE LIABLE FOR ANY DIRECT, INDIRECT,
  26:./ros_lib/ros/subscriber.h ****  * INCIDENTAL, SPECIAL, EXEMPLARY, OR CONSEQUENTIAL DAMAGES (INCLUDING,
  27:./ros_lib/ros/subscriber.h ****  * BUT NOT LIMITED TO, PROCUREMENT OF SUBSTITUTE GOODS OR SERVICES;
  28:./ros_lib/ros/subscriber.h ****  * LOSS OF USE, DATA, OR PROFITS; OR BUSINESS INTERRUPTION) HOWEVER
  29:./ros_lib/ros/subscriber.h ****  * CAUSED AND ON ANY THEORY OF LIABILITY, WHETHER IN CONTRACT, STRICT
  30:./ros_lib/ros/subscriber.h ****  * LIABILITY, OR TORT (INCLUDING NEGLIGENCE OR OTHERWISE) ARISING IN
  31:./ros_lib/ros/subscriber.h ****  * ANY WAY OUT OF THE USE OF THIS SOFTWARE, EVEN IF ADVISED OF THE
  32:./ros_lib/ros/subscriber.h ****  * POSSIBILITY OF SUCH DAMAGE.
  33:./ros_lib/ros/subscriber.h ****  */
  34:./ros_lib/ros/subscriber.h **** 
  35:./ros_lib/ros/subscriber.h **** #ifndef ROS_SUBSCRIBER_H_
  36:./ros_lib/ros/subscriber.h **** #define ROS_SUBSCRIBER_H_
  37:./ros_lib/ros/subscriber.h **** 
  38:./ros_lib/ros/subscriber.h **** #include "rosserial_msgs/TopicInfo.h"
  39:./ros_lib/ros/subscriber.h **** 
  40:./ros_lib/ros/subscriber.h **** namespace ros
  41:./ros_lib/ros/subscriber.h **** {
  42:./ros_lib/ros/subscriber.h **** 
  43:./ros_lib/ros/subscriber.h **** /* Base class for objects subscribers. */
  44:./ros_lib/ros/subscriber.h **** class Subscriber_
  45:./ros_lib/ros/subscriber.h **** {
  46:./ros_lib/ros/subscriber.h **** public:
  47:./ros_lib/ros/subscriber.h ****   virtual void callback(unsigned char *data) = 0;
  48:./ros_lib/ros/subscriber.h ****   virtual int getEndpointType() = 0;
  49:./ros_lib/ros/subscriber.h **** 
  50:./ros_lib/ros/subscriber.h ****   // id_ is set by NodeHandle when we advertise
  51:./ros_lib/ros/subscriber.h ****   int id_;
  52:./ros_lib/ros/subscriber.h **** 
  53:./ros_lib/ros/subscriber.h ****   virtual const char * getMsgType() = 0;
  54:./ros_lib/ros/subscriber.h ****   virtual const char * getMsgMD5() = 0;
  55:./ros_lib/ros/subscriber.h ****   const char * topic_;
  56:./ros_lib/ros/subscriber.h **** };
  57:./ros_lib/ros/subscriber.h **** 
  58:./ros_lib/ros/subscriber.h **** /* Bound function subscriber. */
  59:./ros_lib/ros/subscriber.h **** template<typename MsgT, typename ObjT = void>
  60:./ros_lib/ros/subscriber.h **** class Subscriber: public Subscriber_
  61:./ros_lib/ros/subscriber.h **** {
  62:./ros_lib/ros/subscriber.h **** public:
  63:./ros_lib/ros/subscriber.h ****   typedef void(ObjT::*CallbackT)(const MsgT&);
  64:./ros_lib/ros/subscriber.h ****   MsgT msg;
  65:./ros_lib/ros/subscriber.h **** 
  66:./ros_lib/ros/subscriber.h ****   Subscriber(const char * topic_name, CallbackT cb, ObjT* obj, int endpoint = rosserial_msgs::Topic
  67:./ros_lib/ros/subscriber.h ****     cb_(cb),
  68:./ros_lib/ros/subscriber.h ****     obj_(obj),
  69:./ros_lib/ros/subscriber.h ****     endpoint_(endpoint)
  70:./ros_lib/ros/subscriber.h ****   {
  71:./ros_lib/ros/subscriber.h ****     topic_ = topic_name;
  72:./ros_lib/ros/subscriber.h ****   };
  73:./ros_lib/ros/subscriber.h **** 
  74:./ros_lib/ros/subscriber.h ****   virtual void callback(unsigned char* data) override
  75:./ros_lib/ros/subscriber.h ****   {
  76:./ros_lib/ros/subscriber.h ****     msg.deserialize(data);
  77:./ros_lib/ros/subscriber.h ****     (obj_->*cb_)(msg);
  78:./ros_lib/ros/subscriber.h ****   }
  79:./ros_lib/ros/subscriber.h **** 
  80:./ros_lib/ros/subscriber.h ****   virtual const char * getMsgType() override
  81:./ros_lib/ros/subscriber.h ****   {
  82:./ros_lib/ros/subscriber.h ****     return this->msg.getType();
  83:./ros_lib/ros/subscriber.h ****   }
  84:./ros_lib/ros/subscriber.h ****   virtual const char * getMsgMD5() override
  85:./ros_lib/ros/subscriber.h ****   {
  86:./ros_lib/ros/subscriber.h ****     return this->msg.getMD5();
  87:./ros_lib/ros/subscriber.h ****   }
  88:./ros_lib/ros/subscriber.h ****   virtual int getEndpointType() override
  89:./ros_lib/ros/subscriber.h ****   {
  90:./ros_lib/ros/subscriber.h ****     return endpoint_;
  91:./ros_lib/ros/subscriber.h ****   }
  92:./ros_lib/ros/subscriber.h **** 
  93:./ros_lib/ros/subscriber.h **** private:
  94:./ros_lib/ros/subscriber.h ****   CallbackT cb_;
  95:./ros_lib/ros/subscriber.h ****   ObjT* obj_;
  96:./ros_lib/ros/subscriber.h ****   int endpoint_;
  97:./ros_lib/ros/subscriber.h **** };
  98:./ros_lib/ros/subscriber.h **** 
  99:./ros_lib/ros/subscriber.h **** /* Standalone function subscriber. */
 100:./ros_lib/ros/subscriber.h **** template<typename MsgT>
 101:./ros_lib/ros/subscriber.h **** class Subscriber<MsgT, void>: public Subscriber_
 102:./ros_lib/ros/subscriber.h **** {
 103:./ros_lib/ros/subscriber.h **** public:
 104:./ros_lib/ros/subscriber.h ****   typedef void(*CallbackT)(const MsgT&);
 105:./ros_lib/ros/subscriber.h ****   MsgT msg;
 106:./ros_lib/ros/subscriber.h **** 
 107:./ros_lib/ros/subscriber.h ****   Subscriber(const char * topic_name, CallbackT cb, int endpoint = rosserial_msgs::TopicInfo::ID_SU
 108:./ros_lib/ros/subscriber.h ****     cb_(cb),
 109:./ros_lib/ros/subscriber.h ****     endpoint_(endpoint)
 110:./ros_lib/ros/subscriber.h ****   {
 111:./ros_lib/ros/subscriber.h ****     topic_ = topic_name;
 112:./ros_lib/ros/subscriber.h ****   };
 113:./ros_lib/ros/subscriber.h **** 
 114:./ros_lib/ros/subscriber.h ****   virtual void callback(unsigned char* data) override
 115:./ros_lib/ros/subscriber.h ****   {
 116:./ros_lib/ros/subscriber.h ****     msg.deserialize(data);
 117:./ros_lib/ros/subscriber.h ****     this->cb_(msg);
 118:./ros_lib/ros/subscriber.h ****   }
 119:./ros_lib/ros/subscriber.h **** 
 120:./ros_lib/ros/subscriber.h ****   virtual const char * getMsgType() override
 121:./ros_lib/ros/subscriber.h ****   {
 122:./ros_lib/ros/subscriber.h ****     return this->msg.getType();
 123:./ros_lib/ros/subscriber.h ****   }
 124:./ros_lib/ros/subscriber.h ****   virtual const char * getMsgMD5() override
 125:./ros_lib/ros/subscriber.h ****   {
 126:./ros_lib/ros/subscriber.h ****     return this->msg.getMD5();
 127:./ros_lib/ros/subscriber.h ****   }
 128:./ros_lib/ros/subscriber.h ****   virtual int getEndpointType() override
 828               		.loc 8 128 0
 829               		.cfi_startproc
 830               	.LVL62:
 831               	/* prologue: function */
 832               	/* frame size = 0 */
 833               	/* stack size = 0 */
 834               	.L__stack_usage = 0
 129:./ros_lib/ros/subscriber.h ****   {
 130:./ros_lib/ros/subscriber.h ****     return endpoint_;
 131:./ros_lib/ros/subscriber.h ****   }
 835               		.loc 8 131 0
 836 0000 FC01      		movw r30,r24
 837 0002 84A5      		ldd r24,Z+44
 838 0004 95A5      		ldd r25,Z+45
 839               	.LVL63:
 840 0006 0895      		ret
 841               		.cfi_endproc
 842               	.LFE196:
 844               		.section	.text._ZN3ros10SubscriberIN8std_msgs17Float32MultiArrayEvE10getMsgTypeEv,"axG",@progbits,
 845               		.weak	_ZN3ros10SubscriberIN8std_msgs17Float32MultiArrayEvE10getMsgTypeEv
 847               	_ZN3ros10SubscriberIN8std_msgs17Float32MultiArrayEvE10getMsgTypeEv:
 848               	.LFB197:
 120:./ros_lib/ros/subscriber.h ****   {
 849               		.loc 8 120 0
 850               		.cfi_startproc
 851               	.LVL64:
 852               	/* prologue: function */
 853               	/* frame size = 0 */
 854               	/* stack size = 0 */
 855               	.L__stack_usage = 0
 123:./ros_lib/ros/subscriber.h ****   virtual const char * getMsgMD5() override
 856               		.loc 8 123 0
 857 0000 80E0      		ldi r24,lo8(.LC11)
 858 0002 90E0      		ldi r25,hi8(.LC11)
 859               	.LVL65:
 860 0004 0895      		ret
 861               		.cfi_endproc
 862               	.LFE197:
 864               		.section	.text._ZN3ros10SubscriberIN8std_msgs17Float32MultiArrayEvE9getMsgMD5Ev,"axG",@progbits,_Z
 865               		.weak	_ZN3ros10SubscriberIN8std_msgs17Float32MultiArrayEvE9getMsgMD5Ev
 867               	_ZN3ros10SubscriberIN8std_msgs17Float32MultiArrayEvE9getMsgMD5Ev:
 868               	.LFB198:
 124:./ros_lib/ros/subscriber.h ****   {
 869               		.loc 8 124 0
 870               		.cfi_startproc
 871               	.LVL66:
 872               	/* prologue: function */
 873               	/* frame size = 0 */
 874               	/* stack size = 0 */
 875               	.L__stack_usage = 0
 127:./ros_lib/ros/subscriber.h ****   virtual int getEndpointType() override
 876               		.loc 8 127 0
 877 0000 80E0      		ldi r24,lo8(.LC12)
 878 0002 90E0      		ldi r25,hi8(.LC12)
 879               	.LVL67:
 880 0004 0895      		ret
 881               		.cfi_endproc
 882               	.LFE198:
 884               		.section	.text._ZN3ros11NodeHandle_I18Atmega2560HardwareLi25ELi25ELi512ELi512EE9connectedEv,"axG",
 885               		.weak	_ZN3ros11NodeHandle_I18Atmega2560HardwareLi25ELi25ELi512ELi512EE9connectedEv
 887               	_ZN3ros11NodeHandle_I18Atmega2560HardwareLi25ELi25ELi512ELi512EE9connectedEv:
 888               	.LFB199:
 889               		.file 9 "./ros_lib/ros/node_handle.h"
   1:./ros_lib/ros/node_handle.h **** /*
   2:./ros_lib/ros/node_handle.h ****  * Software License Agreement (BSD License)
   3:./ros_lib/ros/node_handle.h ****  *
   4:./ros_lib/ros/node_handle.h ****  * Copyright (c) 2011, Willow Garage, Inc.
   5:./ros_lib/ros/node_handle.h ****  * All rights reserved.
   6:./ros_lib/ros/node_handle.h ****  *
   7:./ros_lib/ros/node_handle.h ****  * Redistribution and use in source and binary forms, with or without
   8:./ros_lib/ros/node_handle.h ****  * modification, are permitted provided that the following conditions
   9:./ros_lib/ros/node_handle.h ****  * are met:
  10:./ros_lib/ros/node_handle.h ****  *
  11:./ros_lib/ros/node_handle.h ****  *  * Redistributions of source code must retain the above copyright
  12:./ros_lib/ros/node_handle.h ****  *    notice, this list of conditions and the following disclaimer.
  13:./ros_lib/ros/node_handle.h ****  *  * Redistributions in binary form must reproduce the above
  14:./ros_lib/ros/node_handle.h ****  *    copyright notice, this list of conditions and the following
  15:./ros_lib/ros/node_handle.h ****  *    disclaimer in the documentation and/or other materials provided
  16:./ros_lib/ros/node_handle.h ****  *    with the distribution.
  17:./ros_lib/ros/node_handle.h ****  *  * Neither the name of Willow Garage, Inc. nor the names of its
  18:./ros_lib/ros/node_handle.h ****  *    contributors may be used to endorse or promote prducts derived
  19:./ros_lib/ros/node_handle.h ****  *    from this software without specific prior written permission.
  20:./ros_lib/ros/node_handle.h ****  *
  21:./ros_lib/ros/node_handle.h ****  * THIS SOFTWARE IS PROVIDED BY THE COPYRIGHT HOLDERS AND CONTRIBUTORS
  22:./ros_lib/ros/node_handle.h ****  * "AS IS" AND ANY EXPRESS OR IMPLIED WARRANTIES, INCLUDING, BUT NOT
  23:./ros_lib/ros/node_handle.h ****  * LIMITED TO, THE IMPLIED WARRANTIES OF MERCHANTABILITY AND FITNESS
  24:./ros_lib/ros/node_handle.h ****  * FOR A PARTICULAR PURPOSE ARE DISCLAIMED. IN NO EVENT SHALL THE
  25:./ros_lib/ros/node_handle.h ****  * COPYRIGHT OWNER OR CONTRIBUTORS BE LIABLE FOR ANY DIRECT, INDIRECT,
  26:./ros_lib/ros/node_handle.h ****  * INCIDENTAL, SPECIAL, EXEMPLARY, OR CONSEQUENTIAL DAMAGES (INCLUDING,
  27:./ros_lib/ros/node_handle.h ****  * BUT NOT LIMITED TO, PROCUREMENT OF SUBSTITUTE GOODS OR SERVICES;
  28:./ros_lib/ros/node_handle.h ****  * LOSS OF USE, DATA, OR PROFITS; OR BUSINESS INTERRUPTION) HOWEVER
  29:./ros_lib/ros/node_handle.h ****  * CAUSED AND ON ANY THEORY OF LIABILITY, WHETHER IN CONTRACT, STRICT
  30:./ros_lib/ros/node_handle.h ****  * LIABILITY, OR TORT (INCLUDING NEGLIGENCE OR OTHERWISE) ARISING IN
  31:./ros_lib/ros/node_handle.h ****  * ANY WAY OUT OF THE USE OF THIS SOFTWARE, EVEN IF ADVISED OF THE
  32:./ros_lib/ros/node_handle.h ****  * POSSIBILITY OF SUCH DAMAGE.
  33:./ros_lib/ros/node_handle.h ****  */
  34:./ros_lib/ros/node_handle.h **** 
  35:./ros_lib/ros/node_handle.h **** #ifndef ROS_NODE_HANDLE_H_
  36:./ros_lib/ros/node_handle.h **** #define ROS_NODE_HANDLE_H_
  37:./ros_lib/ros/node_handle.h **** 
  38:./ros_lib/ros/node_handle.h **** #include <stdint.h>
  39:./ros_lib/ros/node_handle.h **** 
  40:./ros_lib/ros/node_handle.h **** #include "std_msgs/Time.h"
  41:./ros_lib/ros/node_handle.h **** #include "rosserial_msgs/TopicInfo.h"
  42:./ros_lib/ros/node_handle.h **** #include "rosserial_msgs/Log.h"
  43:./ros_lib/ros/node_handle.h **** #include "rosserial_msgs/RequestParam.h"
  44:./ros_lib/ros/node_handle.h **** 
  45:./ros_lib/ros/node_handle.h **** #include "ros/msg.h"
  46:./ros_lib/ros/node_handle.h **** 
  47:./ros_lib/ros/node_handle.h **** namespace ros
  48:./ros_lib/ros/node_handle.h **** {
  49:./ros_lib/ros/node_handle.h **** 
  50:./ros_lib/ros/node_handle.h **** class NodeHandleBase_
  51:./ros_lib/ros/node_handle.h **** {
  52:./ros_lib/ros/node_handle.h **** public:
  53:./ros_lib/ros/node_handle.h ****   virtual int publish(int id, const Msg* msg) = 0;
  54:./ros_lib/ros/node_handle.h ****   virtual int spinOnce() = 0;
  55:./ros_lib/ros/node_handle.h ****   virtual bool connected() = 0;
  56:./ros_lib/ros/node_handle.h **** };
  57:./ros_lib/ros/node_handle.h **** }
  58:./ros_lib/ros/node_handle.h **** 
  59:./ros_lib/ros/node_handle.h **** #include "ros/publisher.h"
  60:./ros_lib/ros/node_handle.h **** #include "ros/subscriber.h"
  61:./ros_lib/ros/node_handle.h **** #include "ros/service_server.h"
  62:./ros_lib/ros/node_handle.h **** #include "ros/service_client.h"
  63:./ros_lib/ros/node_handle.h **** 
  64:./ros_lib/ros/node_handle.h **** namespace ros
  65:./ros_lib/ros/node_handle.h **** {
  66:./ros_lib/ros/node_handle.h **** 
  67:./ros_lib/ros/node_handle.h **** const int SPIN_OK = 0;
  68:./ros_lib/ros/node_handle.h **** const int SPIN_ERR = -1;
  69:./ros_lib/ros/node_handle.h **** const int SPIN_TIMEOUT = -2;
  70:./ros_lib/ros/node_handle.h **** const int SPIN_TX_STOP_REQUESTED = -3;
  71:./ros_lib/ros/node_handle.h **** const int SPIN_TIME_RECV = -4;
  72:./ros_lib/ros/node_handle.h **** 
  73:./ros_lib/ros/node_handle.h **** const uint8_t SYNC_SECONDS  = 5;
  74:./ros_lib/ros/node_handle.h **** const uint8_t MODE_FIRST_FF = 0;
  75:./ros_lib/ros/node_handle.h **** /*
  76:./ros_lib/ros/node_handle.h ****  * The second sync byte is a protocol version. It's value is 0xff for the first
  77:./ros_lib/ros/node_handle.h ****  * version of the rosserial protocol (used up to hydro), 0xfe for the second version
  78:./ros_lib/ros/node_handle.h ****  * (introduced in hydro), 0xfd for the next, and so on. Its purpose is to enable
  79:./ros_lib/ros/node_handle.h ****  * detection of mismatched protocol versions (e.g. hydro rosserial_python with groovy
  80:./ros_lib/ros/node_handle.h ****  * rosserial_arduino. It must be changed in both this file and in
  81:./ros_lib/ros/node_handle.h ****  * rosserial_python/src/rosserial_python/SerialClient.py
  82:./ros_lib/ros/node_handle.h ****  */
  83:./ros_lib/ros/node_handle.h **** const uint8_t MODE_PROTOCOL_VER   = 1;
  84:./ros_lib/ros/node_handle.h **** const uint8_t PROTOCOL_VER1       = 0xff; // through groovy
  85:./ros_lib/ros/node_handle.h **** const uint8_t PROTOCOL_VER2       = 0xfe; // in hydro
  86:./ros_lib/ros/node_handle.h **** const uint8_t PROTOCOL_VER        = PROTOCOL_VER2;
  87:./ros_lib/ros/node_handle.h **** const uint8_t MODE_SIZE_L         = 2;
  88:./ros_lib/ros/node_handle.h **** const uint8_t MODE_SIZE_H         = 3;
  89:./ros_lib/ros/node_handle.h **** const uint8_t MODE_SIZE_CHECKSUM  = 4;    // checksum for msg size received from size L and H
  90:./ros_lib/ros/node_handle.h **** const uint8_t MODE_TOPIC_L        = 5;    // waiting for topic id
  91:./ros_lib/ros/node_handle.h **** const uint8_t MODE_TOPIC_H        = 6;
  92:./ros_lib/ros/node_handle.h **** const uint8_t MODE_MESSAGE        = 7;
  93:./ros_lib/ros/node_handle.h **** const uint8_t MODE_MSG_CHECKSUM   = 8;    // checksum for msg and topic id
  94:./ros_lib/ros/node_handle.h **** 
  95:./ros_lib/ros/node_handle.h **** 
  96:./ros_lib/ros/node_handle.h **** const uint8_t SERIAL_MSG_TIMEOUT  = 20;   // 20 milliseconds to recieve all of message data
  97:./ros_lib/ros/node_handle.h **** 
  98:./ros_lib/ros/node_handle.h **** using rosserial_msgs::TopicInfo;
  99:./ros_lib/ros/node_handle.h **** 
 100:./ros_lib/ros/node_handle.h **** /* Node Handle */
 101:./ros_lib/ros/node_handle.h **** template<class Hardware,
 102:./ros_lib/ros/node_handle.h ****          int MAX_SUBSCRIBERS = 25,
 103:./ros_lib/ros/node_handle.h ****          int MAX_PUBLISHERS = 25,
 104:./ros_lib/ros/node_handle.h ****          int INPUT_SIZE = 512,
 105:./ros_lib/ros/node_handle.h ****          int OUTPUT_SIZE = 512>
 106:./ros_lib/ros/node_handle.h **** class NodeHandle_ : public NodeHandleBase_
 107:./ros_lib/ros/node_handle.h **** {
 108:./ros_lib/ros/node_handle.h **** protected:
 109:./ros_lib/ros/node_handle.h ****   Hardware hardware_{};
 110:./ros_lib/ros/node_handle.h **** 
 111:./ros_lib/ros/node_handle.h ****   /* time used for syncing */
 112:./ros_lib/ros/node_handle.h ****   uint32_t rt_time{0};
 113:./ros_lib/ros/node_handle.h **** 
 114:./ros_lib/ros/node_handle.h ****   /* used for computing current time */
 115:./ros_lib/ros/node_handle.h ****   uint32_t sec_offset{0}, nsec_offset{0};
 116:./ros_lib/ros/node_handle.h **** 
 117:./ros_lib/ros/node_handle.h ****   /* Spinonce maximum work timeout */
 118:./ros_lib/ros/node_handle.h ****   uint32_t spin_timeout_{0};
 119:./ros_lib/ros/node_handle.h **** 
 120:./ros_lib/ros/node_handle.h ****   uint8_t message_in[INPUT_SIZE] = {0};
 121:./ros_lib/ros/node_handle.h ****   uint8_t message_out[OUTPUT_SIZE] = {0};
 122:./ros_lib/ros/node_handle.h **** 
 123:./ros_lib/ros/node_handle.h ****   Publisher * publishers[MAX_PUBLISHERS] = {nullptr};
 124:./ros_lib/ros/node_handle.h ****   Subscriber_ * subscribers[MAX_SUBSCRIBERS] {nullptr};
 125:./ros_lib/ros/node_handle.h **** 
 126:./ros_lib/ros/node_handle.h ****   /*
 127:./ros_lib/ros/node_handle.h ****    * Setup Functions
 128:./ros_lib/ros/node_handle.h ****    */
 129:./ros_lib/ros/node_handle.h **** public:
 130:./ros_lib/ros/node_handle.h ****   Hardware* getHardware()
 131:./ros_lib/ros/node_handle.h ****   {
 132:./ros_lib/ros/node_handle.h ****     return &hardware_;
 133:./ros_lib/ros/node_handle.h ****   }
 134:./ros_lib/ros/node_handle.h **** 
 135:./ros_lib/ros/node_handle.h ****   /* Start serial, initialize buffers */
 136:./ros_lib/ros/node_handle.h ****   void initNode()
 137:./ros_lib/ros/node_handle.h ****   {
 138:./ros_lib/ros/node_handle.h ****     hardware_.init();
 139:./ros_lib/ros/node_handle.h ****     mode_ = 0;
 140:./ros_lib/ros/node_handle.h ****     bytes_ = 0;
 141:./ros_lib/ros/node_handle.h ****     index_ = 0;
 142:./ros_lib/ros/node_handle.h ****     topic_ = 0;
 143:./ros_lib/ros/node_handle.h ****   };
 144:./ros_lib/ros/node_handle.h **** 
 145:./ros_lib/ros/node_handle.h ****   /* Start a named port, which may be network server IP, initialize buffers */
 146:./ros_lib/ros/node_handle.h ****   void initNode(char *portName)
 147:./ros_lib/ros/node_handle.h ****   {
 148:./ros_lib/ros/node_handle.h ****     hardware_.init(portName);
 149:./ros_lib/ros/node_handle.h ****     mode_ = 0;
 150:./ros_lib/ros/node_handle.h ****     bytes_ = 0;
 151:./ros_lib/ros/node_handle.h ****     index_ = 0;
 152:./ros_lib/ros/node_handle.h ****     topic_ = 0;
 153:./ros_lib/ros/node_handle.h ****   };
 154:./ros_lib/ros/node_handle.h **** 
 155:./ros_lib/ros/node_handle.h ****   /**
 156:./ros_lib/ros/node_handle.h ****    * @brief Sets the maximum time in millisconds that spinOnce() can work.
 157:./ros_lib/ros/node_handle.h ****    * This will not effect the processing of the buffer, as spinOnce processes
 158:./ros_lib/ros/node_handle.h ****    * one byte at a time. It simply sets the maximum time that one call can
 159:./ros_lib/ros/node_handle.h ****    * process for. You can choose to clear the buffer if that is beneficial if
 160:./ros_lib/ros/node_handle.h ****    * SPIN_TIMEOUT is returned from spinOnce().
 161:./ros_lib/ros/node_handle.h ****    * @param timeout The timeout in milliseconds that spinOnce will function.
 162:./ros_lib/ros/node_handle.h ****    */
 163:./ros_lib/ros/node_handle.h ****   void setSpinTimeout(const uint32_t& timeout)
 164:./ros_lib/ros/node_handle.h ****   {
 165:./ros_lib/ros/node_handle.h ****      spin_timeout_ = timeout;
 166:./ros_lib/ros/node_handle.h ****   }
 167:./ros_lib/ros/node_handle.h **** 
 168:./ros_lib/ros/node_handle.h **** protected:
 169:./ros_lib/ros/node_handle.h ****   // State machine variables for spinOnce
 170:./ros_lib/ros/node_handle.h ****   int mode_{0};
 171:./ros_lib/ros/node_handle.h ****   int bytes_{0};
 172:./ros_lib/ros/node_handle.h ****   int topic_{0};
 173:./ros_lib/ros/node_handle.h ****   int index_{0};
 174:./ros_lib/ros/node_handle.h ****   int checksum_{0};
 175:./ros_lib/ros/node_handle.h **** 
 176:./ros_lib/ros/node_handle.h ****   bool configured_{false};
 177:./ros_lib/ros/node_handle.h **** 
 178:./ros_lib/ros/node_handle.h ****   /* used for syncing the time */
 179:./ros_lib/ros/node_handle.h ****   uint32_t last_sync_time{0};
 180:./ros_lib/ros/node_handle.h ****   uint32_t last_sync_receive_time{0};
 181:./ros_lib/ros/node_handle.h ****   uint32_t last_msg_timeout_time{0};
 182:./ros_lib/ros/node_handle.h **** 
 183:./ros_lib/ros/node_handle.h **** public:
 184:./ros_lib/ros/node_handle.h ****   /* This function goes in your loop() function, it handles
 185:./ros_lib/ros/node_handle.h ****    *  serial input and callbacks for subscribers.
 186:./ros_lib/ros/node_handle.h ****    */
 187:./ros_lib/ros/node_handle.h **** 
 188:./ros_lib/ros/node_handle.h **** 
 189:./ros_lib/ros/node_handle.h ****   virtual int spinOnce() override
 190:./ros_lib/ros/node_handle.h ****   {
 191:./ros_lib/ros/node_handle.h ****     /* restart if timed out */
 192:./ros_lib/ros/node_handle.h ****     uint32_t c_time = hardware_.time();
 193:./ros_lib/ros/node_handle.h ****     if ((c_time - last_sync_receive_time) > (SYNC_SECONDS * 2200))
 194:./ros_lib/ros/node_handle.h ****     {
 195:./ros_lib/ros/node_handle.h ****       configured_ = false;
 196:./ros_lib/ros/node_handle.h ****     }
 197:./ros_lib/ros/node_handle.h **** 
 198:./ros_lib/ros/node_handle.h ****     /* reset if message has timed out */
 199:./ros_lib/ros/node_handle.h ****     if (mode_ != MODE_FIRST_FF)
 200:./ros_lib/ros/node_handle.h ****     {
 201:./ros_lib/ros/node_handle.h ****       if (c_time > last_msg_timeout_time)
 202:./ros_lib/ros/node_handle.h ****       {
 203:./ros_lib/ros/node_handle.h ****         mode_ = MODE_FIRST_FF;
 204:./ros_lib/ros/node_handle.h ****       }
 205:./ros_lib/ros/node_handle.h ****     }
 206:./ros_lib/ros/node_handle.h **** 
 207:./ros_lib/ros/node_handle.h ****     bool tx_stop_requested = false;
 208:./ros_lib/ros/node_handle.h ****     bool saw_time_msg = false;
 209:./ros_lib/ros/node_handle.h **** 
 210:./ros_lib/ros/node_handle.h ****     /* while available buffer, read data */
 211:./ros_lib/ros/node_handle.h ****     while (true)
 212:./ros_lib/ros/node_handle.h ****     {
 213:./ros_lib/ros/node_handle.h ****       // If a timeout has been specified, check how long spinOnce has been running.
 214:./ros_lib/ros/node_handle.h ****       if (spin_timeout_ > 0)
 215:./ros_lib/ros/node_handle.h ****       {
 216:./ros_lib/ros/node_handle.h ****         // If the maximum processing timeout has been exceeded, exit with error.
 217:./ros_lib/ros/node_handle.h ****         // The next spinOnce can continue where it left off, or optionally
 218:./ros_lib/ros/node_handle.h ****         // based on the application in use, the hardware buffer could be flushed
 219:./ros_lib/ros/node_handle.h ****         // and start fresh.
 220:./ros_lib/ros/node_handle.h ****         if ((hardware_.time() - c_time) > spin_timeout_)
 221:./ros_lib/ros/node_handle.h ****         {
 222:./ros_lib/ros/node_handle.h ****           // Exit the spin, processing timeout exceeded.
 223:./ros_lib/ros/node_handle.h ****           return SPIN_TIMEOUT;
 224:./ros_lib/ros/node_handle.h ****         }
 225:./ros_lib/ros/node_handle.h ****       }
 226:./ros_lib/ros/node_handle.h ****       int data = hardware_.read();
 227:./ros_lib/ros/node_handle.h ****       if (data < 0)
 228:./ros_lib/ros/node_handle.h ****         break;
 229:./ros_lib/ros/node_handle.h ****       checksum_ += data;
 230:./ros_lib/ros/node_handle.h ****       if (mode_ == MODE_MESSAGE)          /* message data being recieved */
 231:./ros_lib/ros/node_handle.h ****       {
 232:./ros_lib/ros/node_handle.h ****         message_in[index_++] = data;
 233:./ros_lib/ros/node_handle.h ****         bytes_--;
 234:./ros_lib/ros/node_handle.h ****         if (bytes_ == 0)                 /* is message complete? if so, checksum */
 235:./ros_lib/ros/node_handle.h ****           mode_ = MODE_MSG_CHECKSUM;
 236:./ros_lib/ros/node_handle.h ****       }
 237:./ros_lib/ros/node_handle.h ****       else if (mode_ == MODE_FIRST_FF)
 238:./ros_lib/ros/node_handle.h ****       {
 239:./ros_lib/ros/node_handle.h ****         if (data == 0xff)
 240:./ros_lib/ros/node_handle.h ****         {
 241:./ros_lib/ros/node_handle.h ****           mode_++;
 242:./ros_lib/ros/node_handle.h ****           last_msg_timeout_time = c_time + SERIAL_MSG_TIMEOUT;
 243:./ros_lib/ros/node_handle.h ****         }
 244:./ros_lib/ros/node_handle.h ****         else if (hardware_.time() - c_time > (SYNC_SECONDS * 1000))
 245:./ros_lib/ros/node_handle.h ****         {
 246:./ros_lib/ros/node_handle.h ****           /* We have been stuck in spinOnce too long, return error */
 247:./ros_lib/ros/node_handle.h ****           configured_ = false;
 248:./ros_lib/ros/node_handle.h ****           return SPIN_TIMEOUT;
 249:./ros_lib/ros/node_handle.h ****         }
 250:./ros_lib/ros/node_handle.h ****       }
 251:./ros_lib/ros/node_handle.h ****       else if (mode_ == MODE_PROTOCOL_VER)
 252:./ros_lib/ros/node_handle.h ****       {
 253:./ros_lib/ros/node_handle.h ****         if (data == PROTOCOL_VER)
 254:./ros_lib/ros/node_handle.h ****         {
 255:./ros_lib/ros/node_handle.h ****           mode_++;
 256:./ros_lib/ros/node_handle.h ****         }
 257:./ros_lib/ros/node_handle.h ****         else
 258:./ros_lib/ros/node_handle.h ****         {
 259:./ros_lib/ros/node_handle.h ****           mode_ = MODE_FIRST_FF;
 260:./ros_lib/ros/node_handle.h ****           if (configured_ == false)
 261:./ros_lib/ros/node_handle.h ****             requestSyncTime();  /* send a msg back showing our protocol version */
 262:./ros_lib/ros/node_handle.h ****         }
 263:./ros_lib/ros/node_handle.h ****       }
 264:./ros_lib/ros/node_handle.h ****       else if (mode_ == MODE_SIZE_L)      /* bottom half of message size */
 265:./ros_lib/ros/node_handle.h ****       {
 266:./ros_lib/ros/node_handle.h ****         bytes_ = data;
 267:./ros_lib/ros/node_handle.h ****         index_ = 0;
 268:./ros_lib/ros/node_handle.h ****         mode_++;
 269:./ros_lib/ros/node_handle.h ****         checksum_ = data;               /* first byte for calculating size checksum */
 270:./ros_lib/ros/node_handle.h ****       }
 271:./ros_lib/ros/node_handle.h ****       else if (mode_ == MODE_SIZE_H)      /* top half of message size */
 272:./ros_lib/ros/node_handle.h ****       {
 273:./ros_lib/ros/node_handle.h ****         bytes_ += data << 8;
 274:./ros_lib/ros/node_handle.h ****         mode_++;
 275:./ros_lib/ros/node_handle.h ****       }
 276:./ros_lib/ros/node_handle.h ****       else if (mode_ == MODE_SIZE_CHECKSUM)
 277:./ros_lib/ros/node_handle.h ****       {
 278:./ros_lib/ros/node_handle.h ****         if ((checksum_ % 256) == 255)
 279:./ros_lib/ros/node_handle.h ****           mode_++;
 280:./ros_lib/ros/node_handle.h ****         else
 281:./ros_lib/ros/node_handle.h ****           mode_ = MODE_FIRST_FF;          /* Abandon the frame if the msg len is wrong */
 282:./ros_lib/ros/node_handle.h ****       }
 283:./ros_lib/ros/node_handle.h ****       else if (mode_ == MODE_TOPIC_L)     /* bottom half of topic id */
 284:./ros_lib/ros/node_handle.h ****       {
 285:./ros_lib/ros/node_handle.h ****         topic_ = data;
 286:./ros_lib/ros/node_handle.h ****         mode_++;
 287:./ros_lib/ros/node_handle.h ****         checksum_ = data;               /* first byte included in checksum */
 288:./ros_lib/ros/node_handle.h ****       }
 289:./ros_lib/ros/node_handle.h ****       else if (mode_ == MODE_TOPIC_H)     /* top half of topic id */
 290:./ros_lib/ros/node_handle.h ****       {
 291:./ros_lib/ros/node_handle.h ****         topic_ += data << 8;
 292:./ros_lib/ros/node_handle.h ****         mode_ = MODE_MESSAGE;
 293:./ros_lib/ros/node_handle.h ****         if (bytes_ == 0)
 294:./ros_lib/ros/node_handle.h ****           mode_ = MODE_MSG_CHECKSUM;
 295:./ros_lib/ros/node_handle.h ****       }
 296:./ros_lib/ros/node_handle.h ****       else if (mode_ == MODE_MSG_CHECKSUM)    /* do checksum */
 297:./ros_lib/ros/node_handle.h ****       {
 298:./ros_lib/ros/node_handle.h ****         mode_ = MODE_FIRST_FF;
 299:./ros_lib/ros/node_handle.h ****         if ((checksum_ % 256) == 255)
 300:./ros_lib/ros/node_handle.h ****         {
 301:./ros_lib/ros/node_handle.h ****           if (topic_ == TopicInfo::ID_PUBLISHER)
 302:./ros_lib/ros/node_handle.h ****           {
 303:./ros_lib/ros/node_handle.h ****             requestSyncTime();
 304:./ros_lib/ros/node_handle.h ****             negotiateTopics();
 305:./ros_lib/ros/node_handle.h ****             last_sync_time = c_time;
 306:./ros_lib/ros/node_handle.h ****             last_sync_receive_time = c_time;
 307:./ros_lib/ros/node_handle.h ****             return SPIN_ERR;
 308:./ros_lib/ros/node_handle.h ****           }
 309:./ros_lib/ros/node_handle.h ****           else if (topic_ == TopicInfo::ID_TIME)
 310:./ros_lib/ros/node_handle.h ****           {
 311:./ros_lib/ros/node_handle.h ****             saw_time_msg = true;
 312:./ros_lib/ros/node_handle.h ****             syncTime(message_in);
 313:./ros_lib/ros/node_handle.h ****           }
 314:./ros_lib/ros/node_handle.h ****           else if (topic_ == TopicInfo::ID_PARAMETER_REQUEST)
 315:./ros_lib/ros/node_handle.h ****           {
 316:./ros_lib/ros/node_handle.h ****             req_param_resp.deserialize(message_in);
 317:./ros_lib/ros/node_handle.h ****             param_received = true;
 318:./ros_lib/ros/node_handle.h ****           }
 319:./ros_lib/ros/node_handle.h ****           else if (topic_ == TopicInfo::ID_TX_STOP)
 320:./ros_lib/ros/node_handle.h ****           {
 321:./ros_lib/ros/node_handle.h ****             configured_ = false;
 322:./ros_lib/ros/node_handle.h ****             tx_stop_requested = true;
 323:./ros_lib/ros/node_handle.h ****           }
 324:./ros_lib/ros/node_handle.h ****           else
 325:./ros_lib/ros/node_handle.h ****           {
 326:./ros_lib/ros/node_handle.h ****             if (subscribers[topic_ - 100])
 327:./ros_lib/ros/node_handle.h ****               subscribers[topic_ - 100]->callback(message_in);
 328:./ros_lib/ros/node_handle.h ****           }
 329:./ros_lib/ros/node_handle.h ****         }
 330:./ros_lib/ros/node_handle.h ****       }
 331:./ros_lib/ros/node_handle.h ****     }
 332:./ros_lib/ros/node_handle.h **** 
 333:./ros_lib/ros/node_handle.h ****     /* occasionally sync time */
 334:./ros_lib/ros/node_handle.h ****     if (configured_ && ((c_time - last_sync_time) > (SYNC_SECONDS * 500)))
 335:./ros_lib/ros/node_handle.h ****     {
 336:./ros_lib/ros/node_handle.h ****       requestSyncTime();
 337:./ros_lib/ros/node_handle.h ****       last_sync_time = c_time;
 338:./ros_lib/ros/node_handle.h ****     }
 339:./ros_lib/ros/node_handle.h **** 
 340:./ros_lib/ros/node_handle.h ****     return saw_time_msg ? SPIN_TIME_RECV : (tx_stop_requested ? SPIN_TX_STOP_REQUESTED : SPIN_OK);
 341:./ros_lib/ros/node_handle.h ****   }
 342:./ros_lib/ros/node_handle.h **** 
 343:./ros_lib/ros/node_handle.h **** 
 344:./ros_lib/ros/node_handle.h ****   /* Are we connected to the PC? */
 345:./ros_lib/ros/node_handle.h ****   virtual bool connected() override
 890               		.loc 9 345 0
 891               		.cfi_startproc
 892               	.LVL68:
 893               	/* prologue: function */
 894               	/* frame size = 0 */
 895               	/* stack size = 0 */
 896               	.L__stack_usage = 0
 346:./ros_lib/ros/node_handle.h ****   {
 347:./ros_lib/ros/node_handle.h ****     return configured_;
 897               		.loc 9 347 0
 898 0000 8F57      		subi r24,127
 899 0002 9B4F      		sbci r25,-5
 900               	.LVL69:
 348:./ros_lib/ros/node_handle.h ****   };
 901               		.loc 9 348 0
 902 0004 FC01      		movw r30,r24
 903 0006 8081      		ld r24,Z
 904               	.LVL70:
 905 0008 0895      		ret
 906               		.cfi_endproc
 907               	.LFE199:
 909               	.global	__fixsfsi
 910               		.text
 911               	.global	_Z9messageCbRKN8std_msgs17Float32MultiArrayE
 913               	_Z9messageCbRKN8std_msgs17Float32MultiArrayE:
 914               	.LFB174:
 915               		.file 10 "avr_sub_mani.cpp"
   1:avr_sub_mani.cpp **** #include <ros.h>
   2:avr_sub_mani.cpp **** #include <std_msgs/Empty.h>
   3:avr_sub_mani.cpp **** #include <std_msgs/Int32.h>
   4:avr_sub_mani.cpp **** #include <std_msgs/Float32MultiArray.h>
   5:avr_sub_mani.cpp **** extern "C"
   6:avr_sub_mani.cpp **** {
   7:avr_sub_mani.cpp **** #include "mani/IncFile1.h"
   8:avr_sub_mani.cpp **** }
   9:avr_sub_mani.cpp **** 
  10:avr_sub_mani.cpp **** 
  11:avr_sub_mani.cpp **** // Needed for AVR to use virtual functions
  12:avr_sub_mani.cpp **** extern "C" void __cxa_pure_virtual(void);
  13:avr_sub_mani.cpp **** void __cxa_pure_virtual(void) {}
  14:avr_sub_mani.cpp **** 
  15:avr_sub_mani.cpp **** ros::NodeHandle nh;
  16:avr_sub_mani.cpp **** int my_delay = 500;
  17:avr_sub_mani.cpp **** // float x
  18:avr_sub_mani.cpp **** // float y
  19:avr_sub_mani.cpp **** 
  20:avr_sub_mani.cpp **** // void messageCb( const std_msgs::Int32 &toggle_msg){
  21:avr_sub_mani.cpp **** // //   PORTB ^= (1 << PB7);   // blink the led
  22:avr_sub_mani.cpp **** //   my_delay = toggle_msg.data;
  23:avr_sub_mani.cpp **** // }
  24:avr_sub_mani.cpp **** 
  25:avr_sub_mani.cpp **** 
  26:avr_sub_mani.cpp **** void messageCb( const std_msgs::Float32MultiArray &mani_msg){
 916               		.loc 10 26 0
 917               		.cfi_startproc
 918               	.LVL71:
 919 0000 CF93      		push r28
 920               	.LCFI19:
 921               		.cfi_def_cfa_offset 4
 922               		.cfi_offset 28, -3
 923 0002 DF93      		push r29
 924               	.LCFI20:
 925               		.cfi_def_cfa_offset 5
 926               		.cfi_offset 29, -4
 927               	/* prologue: function */
 928               	/* frame size = 0 */
 929               	/* stack size = 2 */
 930               	.L__stack_usage = 2
 931 0004 EC01      		movw r28,r24
  27:avr_sub_mani.cpp **** //   PORTB ^= (1 << PB7);   // blink the led
  28:avr_sub_mani.cpp ****   SetAngle1(mani_msg.data[0]);
 932               		.loc 10 28 0
 933 0006 EAA1      		ldd r30,Y+34
 934 0008 FBA1      		ldd r31,Y+35
 935 000a 6081      		ld r22,Z
 936 000c 7181      		ldd r23,Z+1
 937 000e 8281      		ldd r24,Z+2
 938 0010 9381      		ldd r25,Z+3
 939 0012 0E94 0000 		call __fixsfsi
 940               	.LVL72:
 941 0016 CB01      		movw r24,r22
 942 0018 0E94 0000 		call SetAngle1
 943               	.LVL73:
  29:avr_sub_mani.cpp ****   SetAngle2(mani_msg.data[1]);
 944               		.loc 10 29 0
 945 001c EAA1      		ldd r30,Y+34
 946 001e FBA1      		ldd r31,Y+35
 947 0020 6481      		ldd r22,Z+4
 948 0022 7581      		ldd r23,Z+5
 949 0024 8681      		ldd r24,Z+6
 950 0026 9781      		ldd r25,Z+7
 951 0028 0E94 0000 		call __fixsfsi
 952               	.LVL74:
 953 002c CB01      		movw r24,r22
 954 002e 0E94 0000 		call SetAngle2
 955               	.LVL75:
  30:avr_sub_mani.cpp ****   SetAngle3(mani_msg.data[2]);
 956               		.loc 10 30 0
 957 0032 EAA1      		ldd r30,Y+34
 958 0034 FBA1      		ldd r31,Y+35
 959 0036 6085      		ldd r22,Z+8
 960 0038 7185      		ldd r23,Z+9
 961 003a 8285      		ldd r24,Z+10
 962 003c 9385      		ldd r25,Z+11
 963 003e 0E94 0000 		call __fixsfsi
 964               	.LVL76:
 965 0042 CB01      		movw r24,r22
 966               	/* epilogue start */
  31:avr_sub_mani.cpp **** }
 967               		.loc 10 31 0
 968 0044 DF91      		pop r29
 969 0046 CF91      		pop r28
 970               	.LVL77:
  30:avr_sub_mani.cpp ****   SetAngle3(mani_msg.data[2]);
 971               		.loc 10 30 0
 972 0048 0C94 0000 		jmp SetAngle3
 973               	.LVL78:
 974               		.cfi_endproc
 975               	.LFE174:
 977               		.section	.rodata.str1.1
 978               	.LC13:
 979 0173 4D65 7373 		.string	"Message from device dropped: message larger than buffer."
 979      6167 6520 
 979      6672 6F6D 
 979      2064 6576 
 979      6963 6520 
 980               		.section	.text._ZN3ros11NodeHandle_I18Atmega2560HardwareLi25ELi25ELi512ELi512EE7publishEiPKNS_3Msg
 981               		.weak	_ZN3ros11NodeHandle_I18Atmega2560HardwareLi25ELi25ELi512ELi512EE7publishEiPKNS_3MsgE
 983               	_ZN3ros11NodeHandle_I18Atmega2560HardwareLi25ELi25ELi512ELi512EE7publishEiPKNS_3MsgE:
 984               	.LFB190:
 349:./ros_lib/ros/node_handle.h **** 
 350:./ros_lib/ros/node_handle.h ****   /********************************************************************
 351:./ros_lib/ros/node_handle.h ****    * Time functions
 352:./ros_lib/ros/node_handle.h ****    */
 353:./ros_lib/ros/node_handle.h **** 
 354:./ros_lib/ros/node_handle.h ****   void requestSyncTime()
 355:./ros_lib/ros/node_handle.h ****   {
 356:./ros_lib/ros/node_handle.h ****     std_msgs::Time t;
 357:./ros_lib/ros/node_handle.h ****     publish(TopicInfo::ID_TIME, &t);
 358:./ros_lib/ros/node_handle.h ****     rt_time = hardware_.time();
 359:./ros_lib/ros/node_handle.h ****   }
 360:./ros_lib/ros/node_handle.h **** 
 361:./ros_lib/ros/node_handle.h ****   void syncTime(uint8_t * data)
 362:./ros_lib/ros/node_handle.h ****   {
 363:./ros_lib/ros/node_handle.h ****     std_msgs::Time t;
 364:./ros_lib/ros/node_handle.h ****     uint32_t offset = hardware_.time() - rt_time;
 365:./ros_lib/ros/node_handle.h **** 
 366:./ros_lib/ros/node_handle.h ****     t.deserialize(data);
 367:./ros_lib/ros/node_handle.h ****     t.data.sec += offset / 1000;
 368:./ros_lib/ros/node_handle.h ****     t.data.nsec += (offset % 1000) * 1000000UL;
 369:./ros_lib/ros/node_handle.h **** 
 370:./ros_lib/ros/node_handle.h ****     this->setNow(t.data);
 371:./ros_lib/ros/node_handle.h ****     last_sync_receive_time = hardware_.time();
 372:./ros_lib/ros/node_handle.h ****   }
 373:./ros_lib/ros/node_handle.h **** 
 374:./ros_lib/ros/node_handle.h ****   Time now()
 375:./ros_lib/ros/node_handle.h ****   {
 376:./ros_lib/ros/node_handle.h ****     uint32_t ms = hardware_.time();
 377:./ros_lib/ros/node_handle.h ****     Time current_time;
 378:./ros_lib/ros/node_handle.h ****     current_time.sec = ms / 1000 + sec_offset;
 379:./ros_lib/ros/node_handle.h ****     current_time.nsec = (ms % 1000) * 1000000UL + nsec_offset;
 380:./ros_lib/ros/node_handle.h ****     normalizeSecNSec(current_time.sec, current_time.nsec);
 381:./ros_lib/ros/node_handle.h ****     return current_time;
 382:./ros_lib/ros/node_handle.h ****   }
 383:./ros_lib/ros/node_handle.h **** 
 384:./ros_lib/ros/node_handle.h ****   void setNow(const Time & new_now)
 385:./ros_lib/ros/node_handle.h ****   {
 386:./ros_lib/ros/node_handle.h ****     uint32_t ms = hardware_.time();
 387:./ros_lib/ros/node_handle.h ****     sec_offset = new_now.sec - ms / 1000 - 1;
 388:./ros_lib/ros/node_handle.h ****     nsec_offset = new_now.nsec - (ms % 1000) * 1000000UL + 1000000000UL;
 389:./ros_lib/ros/node_handle.h ****     normalizeSecNSec(sec_offset, nsec_offset);
 390:./ros_lib/ros/node_handle.h ****   }
 391:./ros_lib/ros/node_handle.h **** 
 392:./ros_lib/ros/node_handle.h ****   /********************************************************************
 393:./ros_lib/ros/node_handle.h ****    * Topic Management
 394:./ros_lib/ros/node_handle.h ****    */
 395:./ros_lib/ros/node_handle.h **** 
 396:./ros_lib/ros/node_handle.h ****   /* Register a new publisher */
 397:./ros_lib/ros/node_handle.h ****   bool advertise(Publisher & p)
 398:./ros_lib/ros/node_handle.h ****   {
 399:./ros_lib/ros/node_handle.h ****     for (int i = 0; i < MAX_PUBLISHERS; i++)
 400:./ros_lib/ros/node_handle.h ****     {
 401:./ros_lib/ros/node_handle.h ****       if (publishers[i] == 0) // empty slot
 402:./ros_lib/ros/node_handle.h ****       {
 403:./ros_lib/ros/node_handle.h ****         publishers[i] = &p;
 404:./ros_lib/ros/node_handle.h ****         p.id_ = i + 100 + MAX_SUBSCRIBERS;
 405:./ros_lib/ros/node_handle.h ****         p.nh_ = this;
 406:./ros_lib/ros/node_handle.h ****         return true;
 407:./ros_lib/ros/node_handle.h ****       }
 408:./ros_lib/ros/node_handle.h ****     }
 409:./ros_lib/ros/node_handle.h ****     return false;
 410:./ros_lib/ros/node_handle.h ****   }
 411:./ros_lib/ros/node_handle.h **** 
 412:./ros_lib/ros/node_handle.h ****   /* Register a new subscriber */
 413:./ros_lib/ros/node_handle.h ****   bool subscribe(Subscriber_& s)
 414:./ros_lib/ros/node_handle.h ****   {
 415:./ros_lib/ros/node_handle.h ****     for (int i = 0; i < MAX_SUBSCRIBERS; i++)
 416:./ros_lib/ros/node_handle.h ****     {
 417:./ros_lib/ros/node_handle.h ****       if (subscribers[i] == 0) // empty slot
 418:./ros_lib/ros/node_handle.h ****       {
 419:./ros_lib/ros/node_handle.h ****         subscribers[i] = &s;
 420:./ros_lib/ros/node_handle.h ****         s.id_ = i + 100;
 421:./ros_lib/ros/node_handle.h ****         return true;
 422:./ros_lib/ros/node_handle.h ****       }
 423:./ros_lib/ros/node_handle.h ****     }
 424:./ros_lib/ros/node_handle.h ****     return false;
 425:./ros_lib/ros/node_handle.h ****   }
 426:./ros_lib/ros/node_handle.h **** 
 427:./ros_lib/ros/node_handle.h ****   /* Register a new Service Server */
 428:./ros_lib/ros/node_handle.h ****   template<typename MReq, typename MRes, typename ObjT>
 429:./ros_lib/ros/node_handle.h ****   bool advertiseService(ServiceServer<MReq, MRes, ObjT>& srv)
 430:./ros_lib/ros/node_handle.h ****   {
 431:./ros_lib/ros/node_handle.h ****     bool v = advertise(srv.pub);
 432:./ros_lib/ros/node_handle.h ****     bool w = subscribe(srv);
 433:./ros_lib/ros/node_handle.h ****     return v && w;
 434:./ros_lib/ros/node_handle.h ****   }
 435:./ros_lib/ros/node_handle.h **** 
 436:./ros_lib/ros/node_handle.h ****   /* Register a new Service Client */
 437:./ros_lib/ros/node_handle.h ****   template<typename MReq, typename MRes>
 438:./ros_lib/ros/node_handle.h ****   bool serviceClient(ServiceClient<MReq, MRes>& srv)
 439:./ros_lib/ros/node_handle.h ****   {
 440:./ros_lib/ros/node_handle.h ****     bool v = advertise(srv.pub);
 441:./ros_lib/ros/node_handle.h ****     bool w = subscribe(srv);
 442:./ros_lib/ros/node_handle.h ****     return v && w;
 443:./ros_lib/ros/node_handle.h ****   }
 444:./ros_lib/ros/node_handle.h **** 
 445:./ros_lib/ros/node_handle.h ****   void negotiateTopics()
 446:./ros_lib/ros/node_handle.h ****   {
 447:./ros_lib/ros/node_handle.h ****     rosserial_msgs::TopicInfo ti;
 448:./ros_lib/ros/node_handle.h ****     int i;
 449:./ros_lib/ros/node_handle.h ****     for (i = 0; i < MAX_PUBLISHERS; i++)
 450:./ros_lib/ros/node_handle.h ****     {
 451:./ros_lib/ros/node_handle.h ****       if (publishers[i] != 0) // non-empty slot
 452:./ros_lib/ros/node_handle.h ****       {
 453:./ros_lib/ros/node_handle.h ****         ti.topic_id = publishers[i]->id_;
 454:./ros_lib/ros/node_handle.h ****         ti.topic_name = (char *) publishers[i]->topic_;
 455:./ros_lib/ros/node_handle.h ****         ti.message_type = (char *) publishers[i]->msg_->getType();
 456:./ros_lib/ros/node_handle.h ****         ti.md5sum = (char *) publishers[i]->msg_->getMD5();
 457:./ros_lib/ros/node_handle.h ****         ti.buffer_size = OUTPUT_SIZE;
 458:./ros_lib/ros/node_handle.h ****         publish(publishers[i]->getEndpointType(), &ti);
 459:./ros_lib/ros/node_handle.h ****       }
 460:./ros_lib/ros/node_handle.h ****     }
 461:./ros_lib/ros/node_handle.h ****     for (i = 0; i < MAX_SUBSCRIBERS; i++)
 462:./ros_lib/ros/node_handle.h ****     {
 463:./ros_lib/ros/node_handle.h ****       if (subscribers[i] != 0) // non-empty slot
 464:./ros_lib/ros/node_handle.h ****       {
 465:./ros_lib/ros/node_handle.h ****         ti.topic_id = subscribers[i]->id_;
 466:./ros_lib/ros/node_handle.h ****         ti.topic_name = (char *) subscribers[i]->topic_;
 467:./ros_lib/ros/node_handle.h ****         ti.message_type = (char *) subscribers[i]->getMsgType();
 468:./ros_lib/ros/node_handle.h ****         ti.md5sum = (char *) subscribers[i]->getMsgMD5();
 469:./ros_lib/ros/node_handle.h ****         ti.buffer_size = INPUT_SIZE;
 470:./ros_lib/ros/node_handle.h ****         publish(subscribers[i]->getEndpointType(), &ti);
 471:./ros_lib/ros/node_handle.h ****       }
 472:./ros_lib/ros/node_handle.h ****     }
 473:./ros_lib/ros/node_handle.h ****     configured_ = true;
 474:./ros_lib/ros/node_handle.h ****   }
 475:./ros_lib/ros/node_handle.h **** 
 476:./ros_lib/ros/node_handle.h ****   virtual int publish(int id, const Msg * msg) override
 985               		.loc 9 476 0
 986               		.cfi_startproc
 987               	.LVL79:
 988 0000 CF92      		push r12
 989               	.LCFI21:
 990               		.cfi_def_cfa_offset 4
 991               		.cfi_offset 12, -3
 992 0002 DF92      		push r13
 993               	.LCFI22:
 994               		.cfi_def_cfa_offset 5
 995               		.cfi_offset 13, -4
 996 0004 EF92      		push r14
 997               	.LCFI23:
 998               		.cfi_def_cfa_offset 6
 999               		.cfi_offset 14, -5
 1000 0006 FF92      		push r15
 1001               	.LCFI24:
 1002               		.cfi_def_cfa_offset 7
 1003               		.cfi_offset 15, -6
 1004 0008 0F93      		push r16
 1005               	.LCFI25:
 1006               		.cfi_def_cfa_offset 8
 1007               		.cfi_offset 16, -7
 1008 000a 1F93      		push r17
 1009               	.LCFI26:
 1010               		.cfi_def_cfa_offset 9
 1011               		.cfi_offset 17, -8
 1012 000c CF93      		push r28
 1013               	.LCFI27:
 1014               		.cfi_def_cfa_offset 10
 1015               		.cfi_offset 28, -9
 1016 000e DF93      		push r29
 1017               	.LCFI28:
 1018               		.cfi_def_cfa_offset 11
 1019               		.cfi_offset 29, -10
 1020 0010 00D0      		rcall .
 1021 0012 1F92      		push __zero_reg__
 1022 0014 1F92      		push __zero_reg__
 1023               	.LCFI29:
 1024               		.cfi_def_cfa_offset 16
 1025 0016 CDB7      		in r28,__SP_L__
 1026 0018 DEB7      		in r29,__SP_H__
 1027               	.LCFI30:
 1028               		.cfi_def_cfa_register 28
 1029               	/* prologue: function */
 1030               	/* frame size = 5 */
 1031               	/* stack size = 13 */
 1032               	.L__stack_usage = 13
 477:./ros_lib/ros/node_handle.h ****   {
 478:./ros_lib/ros/node_handle.h ****     if (id >= 100 && !configured_)
 1033               		.loc 9 478 0
 1034 001a 6436      		cpi r22,100
 1035 001c 7105      		cpc r23,__zero_reg__
 1036 001e 04F0      		brlt .L30
 1037               		.loc 9 478 0 is_stmt 0 discriminator 1
 1038 0020 FC01      		movw r30,r24
 1039 0022 EF57      		subi r30,127
 1040 0024 FB4F      		sbci r31,-5
 1041 0026 2081      		ld r18,Z
 1042 0028 2223      		tst r18
 1043 002a 01F4      		brne .+2
 1044 002c 00C0      		rjmp .L36
 1045               	.L30:
 1046 002e DA01      		movw r26,r20
 1047 0030 7B01      		movw r14,r22
 1048 0032 8C01      		movw r16,r24
 479:./ros_lib/ros/node_handle.h ****       return 0;
 480:./ros_lib/ros/node_handle.h **** 
 481:./ros_lib/ros/node_handle.h ****     /* serialize message */
 482:./ros_lib/ros/node_handle.h ****     int l = msg->serialize(message_out + 7);
 1049               		.loc 9 482 0 is_stmt 1
 1050 0034 BC01      		movw r22,r24
 1051               	.LVL80:
 1052 0036 665E      		subi r22,-26
 1053 0038 7D4F      		sbci r23,-3
 1054 003a ED91      		ld r30,X+
 1055 003c FC91      		ld r31,X
 1056 003e 0190      		ld __tmp_reg__,Z+
 1057 0040 F081      		ld r31,Z
 1058 0042 E02D      		mov r30,__tmp_reg__
 1059 0044 CA01      		movw r24,r20
 1060               	.LVL81:
 1061 0046 1995      		eicall
 1062               	.LVL82:
 483:./ros_lib/ros/node_handle.h **** 
 484:./ros_lib/ros/node_handle.h ****     /* setup the header */
 485:./ros_lib/ros/node_handle.h ****     message_out[0] = 0xff;
 1063               		.loc 9 485 0
 1064 0048 6801      		movw r12,r16
 1065 004a 2DEE      		ldi r18,-19
 1066 004c C21A      		sub r12,r18
 1067 004e 2DEF      		ldi r18,-3
 1068 0050 D20A      		sbc r13,r18
 1069 0052 2FEF      		ldi r18,lo8(-1)
 1070 0054 D601      		movw r26,r12
 1071 0056 2C93      		st X,r18
 486:./ros_lib/ros/node_handle.h ****     message_out[1] = PROTOCOL_VER;
 1072               		.loc 9 486 0
 1073 0058 F801      		movw r30,r16
 1074 005a EC5E      		subi r30,-20
 1075 005c FD4F      		sbci r31,-3
 1076 005e 2EEF      		ldi r18,lo8(-2)
 1077 0060 2083      		st Z,r18
 487:./ros_lib/ros/node_handle.h ****     message_out[2] = (uint8_t)((uint16_t)l & 255);
 1078               		.loc 9 487 0
 1079 0062 3196      		adiw r30,1
 1080 0064 8083      		st Z,r24
 488:./ros_lib/ros/node_handle.h ****     message_out[3] = (uint8_t)((uint16_t)l >> 8);
 1081               		.loc 9 488 0
 1082 0066 3196      		adiw r30,1
 1083 0068 9083      		st Z,r25
 489:./ros_lib/ros/node_handle.h ****     message_out[4] = 255 - ((message_out[2] + message_out[3]) % 256);
 1084               		.loc 9 489 0
 1085 006a 3196      		adiw r30,1
 1086 006c 292F      		mov r18,r25
 1087 006e 280F      		add r18,r24
 1088 0070 2095      		com r18
 1089 0072 2083      		st Z,r18
 490:./ros_lib/ros/node_handle.h ****     message_out[5] = (uint8_t)((int16_t)id & 255);
 1090               		.loc 9 490 0
 1091 0074 3196      		adiw r30,1
 1092 0076 E082      		st Z,r14
 491:./ros_lib/ros/node_handle.h ****     message_out[6] = (uint8_t)((int16_t)id >> 8);
 1093               		.loc 9 491 0
 1094 0078 1696      		adiw r26,6
 1095 007a FC92      		st X,r15
 1096               	.LVL83:
 1097               	.LBB103:
 492:./ros_lib/ros/node_handle.h **** 
 493:./ros_lib/ros/node_handle.h ****     /* calculate checksum */
 494:./ros_lib/ros/node_handle.h ****     int chk = 0;
 495:./ros_lib/ros/node_handle.h ****     for (int i = 5; i < l + 7; i++)
 1098               		.loc 9 495 0
 1099 007c 45E0      		ldi r20,lo8(5)
 1100 007e 50E0      		ldi r21,0
 1101               	.LBE103:
 494:./ros_lib/ros/node_handle.h ****     for (int i = 5; i < l + 7; i++)
 1102               		.loc 9 494 0
 1103 0080 20E0      		ldi r18,0
 1104 0082 30E0      		ldi r19,0
 1105               	.LBB104:
 1106               		.loc 9 495 0
 1107 0084 DC01      		movw r26,r24
 1108 0086 1696      		adiw r26,6
 1109               	.LVL84:
 1110               	.L33:
 1111               		.loc 9 495 0 is_stmt 0 discriminator 3
 1112 0088 A417      		cp r26,r20
 1113 008a B507      		cpc r27,r21
 1114 008c 04F0      		brlt .L32
 496:./ros_lib/ros/node_handle.h ****       chk += message_out[i];
 1115               		.loc 9 496 0 is_stmt 1 discriminator 2
 1116 008e 6191      		ld r22,Z+
 1117 0090 260F      		add r18,r22
 1118 0092 311D      		adc r19,__zero_reg__
 1119               	.LVL85:
 495:./ros_lib/ros/node_handle.h ****       chk += message_out[i];
 1120               		.loc 9 495 0 discriminator 2
 1121 0094 4F5F      		subi r20,-1
 1122 0096 5F4F      		sbci r21,-1
 1123               	.LVL86:
 1124 0098 00C0      		rjmp .L33
 1125               	.L32:
 1126               	.LVL87:
 1127               	.LBE104:
 497:./ros_lib/ros/node_handle.h ****     l += 7;
 498:./ros_lib/ros/node_handle.h ****     message_out[l++] = 255 - (chk % 256);
 1128               		.loc 9 498 0
 1129 009a 7C01      		movw r14,r24
 1130               	.LVL88:
 1131 009c B8E0      		ldi r27,8
 1132 009e EB0E      		add r14,r27
 1133 00a0 F11C      		adc r15,__zero_reg__
 1134               	.LVL89:
 1135 00a2 800F      		add r24,r16
 1136 00a4 911F      		adc r25,r17
 1137 00a6 FC01      		movw r30,r24
 1138 00a8 E65E      		subi r30,-26
 1139 00aa FD4F      		sbci r31,-3
 1140 00ac 2095      		com r18
 1141               	.LVL90:
 1142 00ae 2083      		st Z,r18
 499:./ros_lib/ros/node_handle.h **** 
 500:./ros_lib/ros/node_handle.h ****     if (l <= OUTPUT_SIZE)
 1143               		.loc 9 500 0
 1144 00b0 E1E0      		ldi r30,1
 1145 00b2 EE16      		cp r14,r30
 1146 00b4 E2E0      		ldi r30,2
 1147 00b6 FE06      		cpc r15,r30
 1148 00b8 04F4      		brge .L34
 1149               	.LVL91:
 501:./ros_lib/ros/node_handle.h ****     {
 502:./ros_lib/ros/node_handle.h ****       hardware_.write(message_out, l);
 1150               		.loc 9 502 0
 1151 00ba 8601      		movw r16,r12
 1152               	.LVL92:
 1153               	.L35:
 1154               	.LBB105:
 1155               	.LBB106:
 1156               		.file 11 "./Atmega2560Hardware.h"
   1:./Atmega2560Hardware.h **** #ifndef _ATMEGA2560_HARDWARE_H
   2:./Atmega2560Hardware.h **** #define _ATMEGA2560_HARDWARE_H
   3:./Atmega2560Hardware.h **** 
   4:./Atmega2560Hardware.h **** extern "C"
   5:./Atmega2560Hardware.h **** {
   6:./Atmega2560Hardware.h ****   #include <avr/interrupt.h>
   7:./Atmega2560Hardware.h ****   #include <avr/wdt.h>
   8:./Atmega2560Hardware.h ****   #include "avr_time.h"
   9:./Atmega2560Hardware.h ****   #include "avr_uart.h"
  10:./Atmega2560Hardware.h **** }
  11:./Atmega2560Hardware.h **** 
  12:./Atmega2560Hardware.h **** class Atmega2560Hardware {
  13:./Atmega2560Hardware.h ****   public:
  14:./Atmega2560Hardware.h ****     Atmega2560Hardware() {}
  15:./Atmega2560Hardware.h **** 
  16:./Atmega2560Hardware.h **** 
  17:./Atmega2560Hardware.h ****     // Initialize the AVR
  18:./Atmega2560Hardware.h ****     void init()
  19:./Atmega2560Hardware.h ****     {
  20:./Atmega2560Hardware.h ****       wdt_disable();
  21:./Atmega2560Hardware.h ****       avr_time_init();
  22:./Atmega2560Hardware.h ****       avr_uart_init();
  23:./Atmega2560Hardware.h ****       sei();
  24:./Atmega2560Hardware.h ****     }
  25:./Atmega2560Hardware.h **** 
  26:./Atmega2560Hardware.h ****     // Read a byte of data from ROS connection.
  27:./Atmega2560Hardware.h ****     // If no data, returns -1
  28:./Atmega2560Hardware.h ****     int read()
  29:./Atmega2560Hardware.h ****     {
  30:./Atmega2560Hardware.h ****       return avr_uart_receive_byte();
  31:./Atmega2560Hardware.h ****     }
  32:./Atmega2560Hardware.h **** 
  33:./Atmega2560Hardware.h **** 
  34:./Atmega2560Hardware.h ****     // Send a byte of data to ROS connection
  35:./Atmega2560Hardware.h ****     void write(uint8_t* data, int length)
  36:./Atmega2560Hardware.h ****     {
  37:./Atmega2560Hardware.h ****       for(int i = 0; i < length; i++)
 1157               		.loc 11 37 0
 1158 00bc C801      		movw r24,r16
 1159 00be 8C19      		sub r24,r12
 1160 00c0 9D09      		sbc r25,r13
 1161 00c2 8E15      		cp r24,r14
 1162 00c4 9F05      		cpc r25,r15
 1163 00c6 04F4      		brge .L37
  38:./Atmega2560Hardware.h ****       {
  39:./Atmega2560Hardware.h ****         avr_uart_send_byte(data[i]);
 1164               		.loc 11 39 0
 1165 00c8 D801      		movw r26,r16
 1166 00ca 8D91      		ld r24,X+
 1167 00cc 8D01      		movw r16,r26
 1168               	.LVL93:
 1169 00ce 0E94 0000 		call avr_uart_send_byte
 1170               	.LVL94:
 1171 00d2 00C0      		rjmp .L35
 1172               	.LVL95:
 1173               	.L34:
 1174               	.LBE106:
 1175               	.LBE105:
 1176               	.LBB108:
 1177               	.LBB109:
 1178               	.LBB110:
 1179               	.LBB111:
 1180               	.LBB112:
  27:./ros_lib/rosserial_msgs/Log.h ****     {
 1181               		.loc 3 27 0
 1182 00d4 80E0      		ldi r24,lo8(_ZTVN14rosserial_msgs3LogE+4)
 1183 00d6 90E0      		ldi r25,hi8(_ZTVN14rosserial_msgs3LogE+4)
 1184 00d8 9A83      		std Y+2,r25
 1185 00da 8983      		std Y+1,r24
 1186               	.LVL96:
 1187               	.LBE112:
 1188               	.LBE111:
 503:./ros_lib/ros/node_handle.h ****       return l;
 504:./ros_lib/ros/node_handle.h ****     }
 505:./ros_lib/ros/node_handle.h ****     else
 506:./ros_lib/ros/node_handle.h ****     {
 507:./ros_lib/ros/node_handle.h ****       logerror("Message from device dropped: message larger than buffer.");
 508:./ros_lib/ros/node_handle.h ****       return -1;
 509:./ros_lib/ros/node_handle.h ****     }
 510:./ros_lib/ros/node_handle.h ****   }
 511:./ros_lib/ros/node_handle.h **** 
 512:./ros_lib/ros/node_handle.h ****   /********************************************************************
 513:./ros_lib/ros/node_handle.h ****    * Logging
 514:./ros_lib/ros/node_handle.h ****    */
 515:./ros_lib/ros/node_handle.h **** 
 516:./ros_lib/ros/node_handle.h **** protected:
 517:./ros_lib/ros/node_handle.h ****   void log(char byte, const char * msg)
 518:./ros_lib/ros/node_handle.h ****   {
 519:./ros_lib/ros/node_handle.h ****     rosserial_msgs::Log l;
 520:./ros_lib/ros/node_handle.h ****     l.level = byte;
 1189               		.loc 9 520 0
 1190 00dc 83E0      		ldi r24,lo8(3)
 1191 00de 8B83      		std Y+3,r24
 521:./ros_lib/ros/node_handle.h ****     l.msg = (char*)msg;
 1192               		.loc 9 521 0
 1193 00e0 80E0      		ldi r24,lo8(.LC13)
 1194 00e2 90E0      		ldi r25,hi8(.LC13)
 1195 00e4 9D83      		std Y+5,r25
 1196 00e6 8C83      		std Y+4,r24
 522:./ros_lib/ros/node_handle.h ****     publish(rosserial_msgs::TopicInfo::ID_LOG, &l);
 1197               		.loc 9 522 0
 1198 00e8 D801      		movw r26,r16
 1199 00ea ED91      		ld r30,X+
 1200 00ec FC91      		ld r31,X
 1201 00ee 0190      		ld __tmp_reg__,Z+
 1202 00f0 F081      		ld r31,Z
 1203 00f2 E02D      		mov r30,__tmp_reg__
 1204 00f4 AE01      		movw r20,r28
 1205               	.LVL97:
 1206 00f6 4F5F      		subi r20,-1
 1207 00f8 5F4F      		sbci r21,-1
 1208 00fa 67E0      		ldi r22,lo8(7)
 1209 00fc 70E0      		ldi r23,0
 1210 00fe C801      		movw r24,r16
 1211 0100 1995      		eicall
 1212               	.LVL98:
 1213               	.LBE110:
 1214               	.LBE109:
 1215               	.LBE108:
 508:./ros_lib/ros/node_handle.h ****     }
 1216               		.loc 9 508 0
 1217 0102 8FEF      		ldi r24,lo8(-1)
 1218 0104 9FEF      		ldi r25,lo8(-1)
 1219 0106 00C0      		rjmp .L31
 1220               	.LVL99:
 1221               	.L36:
 479:./ros_lib/ros/node_handle.h **** 
 1222               		.loc 9 479 0
 1223 0108 80E0      		ldi r24,0
 1224               	.LVL100:
 1225 010a 90E0      		ldi r25,0
 1226 010c 00C0      		rjmp .L31
 1227               	.LVL101:
 1228               	.L37:
 1229               	.LBB113:
 1230               	.LBB107:
  37:./Atmega2560Hardware.h ****       {
 1231               		.loc 11 37 0
 1232 010e C701      		movw r24,r14
 1233               	.LVL102:
 1234               	.L31:
 1235               	/* epilogue start */
 1236               	.LBE107:
 1237               	.LBE113:
 510:./ros_lib/ros/node_handle.h **** 
 1238               		.loc 9 510 0
 1239 0110 0F90      		pop __tmp_reg__
 1240 0112 0F90      		pop __tmp_reg__
 1241 0114 0F90      		pop __tmp_reg__
 1242 0116 0F90      		pop __tmp_reg__
 1243 0118 0F90      		pop __tmp_reg__
 1244 011a DF91      		pop r29
 1245 011c CF91      		pop r28
 1246 011e 1F91      		pop r17
 1247 0120 0F91      		pop r16
 1248 0122 FF90      		pop r15
 1249 0124 EF90      		pop r14
 1250 0126 DF90      		pop r13
 1251 0128 CF90      		pop r12
 1252 012a 0895      		ret
 1253               		.cfi_endproc
 1254               	.LFE190:
 1256               		.text
 1257               	.global	__cxa_pure_virtual
 1259               	__cxa_pure_virtual:
 1260               	.LFB167:
  13:avr_sub_mani.cpp **** 
 1261               		.loc 10 13 0
 1262               		.cfi_startproc
 1263               	/* prologue: function */
 1264               	/* frame size = 0 */
 1265               	/* stack size = 0 */
 1266               	.L__stack_usage = 0
 1267 004c 0895      		ret
 1268               		.cfi_endproc
 1269               	.LFE167:
 1271               		.section	.text._ZN3ros3Msg8varToArrIPhmEEvT_T0_,"axG",@progbits,_ZN3ros3Msg8varToArrIPhmEEvT_T0_,c
 1272               		.weak	_ZN3ros3Msg8varToArrIPhmEEvT_T0_
 1274               	_ZN3ros3Msg8varToArrIPhmEEvT_T0_:
 1275               	.LFB176:
 1276               		.file 12 "./ros_lib/ros/msg.h"
   1:./ros_lib/ros/msg.h **** /*
   2:./ros_lib/ros/msg.h ****  * Software License Agreement (BSD License)
   3:./ros_lib/ros/msg.h ****  *
   4:./ros_lib/ros/msg.h ****  * Copyright (c) 2011, Willow Garage, Inc.
   5:./ros_lib/ros/msg.h ****  * All rights reserved.
   6:./ros_lib/ros/msg.h ****  *
   7:./ros_lib/ros/msg.h ****  * Redistribution and use in source and binary forms, with or without
   8:./ros_lib/ros/msg.h ****  * modification, are permitted provided that the following conditions
   9:./ros_lib/ros/msg.h ****  * are met:
  10:./ros_lib/ros/msg.h ****  *
  11:./ros_lib/ros/msg.h ****  *  * Redistributions of source code must retain the above copyright
  12:./ros_lib/ros/msg.h ****  *    notice, this list of conditions and the following disclaimer.
  13:./ros_lib/ros/msg.h ****  *  * Redistributions in binary form must reproduce the above
  14:./ros_lib/ros/msg.h ****  *    copyright notice, this list of conditions and the following
  15:./ros_lib/ros/msg.h ****  *    disclaimer in the documentation and/or other materials provided
  16:./ros_lib/ros/msg.h ****  *    with the distribution.
  17:./ros_lib/ros/msg.h ****  *  * Neither the name of Willow Garage, Inc. nor the names of its
  18:./ros_lib/ros/msg.h ****  *    contributors may be used to endorse or promote prducts derived
  19:./ros_lib/ros/msg.h ****  *    from this software without specific prior written permission.
  20:./ros_lib/ros/msg.h ****  *
  21:./ros_lib/ros/msg.h ****  * THIS SOFTWARE IS PROVIDED BY THE COPYRIGHT HOLDERS AND CONTRIBUTORS
  22:./ros_lib/ros/msg.h ****  * "AS IS" AND ANY EXPRESS OR IMPLIED WARRANTIES, INCLUDING, BUT NOT
  23:./ros_lib/ros/msg.h ****  * LIMITED TO, THE IMPLIED WARRANTIES OF MERCHANTABILITY AND FITNESS
  24:./ros_lib/ros/msg.h ****  * FOR A PARTICULAR PURPOSE ARE DISCLAIMED. IN NO EVENT SHALL THE
  25:./ros_lib/ros/msg.h ****  * COPYRIGHT OWNER OR CONTRIBUTORS BE LIABLE FOR ANY DIRECT, INDIRECT,
  26:./ros_lib/ros/msg.h ****  * INCIDENTAL, SPECIAL, EXEMPLARY, OR CONSEQUENTIAL DAMAGES (INCLUDING,
  27:./ros_lib/ros/msg.h ****  * BUT NOT LIMITED TO, PROCUREMENT OF SUBSTITUTE GOODS OR SERVICES;
  28:./ros_lib/ros/msg.h ****  * LOSS OF USE, DATA, OR PROFITS; OR BUSINESS INTERRUPTION) HOWEVER
  29:./ros_lib/ros/msg.h ****  * CAUSED AND ON ANY THEORY OF LIABILITY, WHETHER IN CONTRACT, STRICT
  30:./ros_lib/ros/msg.h ****  * LIABILITY, OR TORT (INCLUDING NEGLIGENCE OR OTHERWISE) ARISING IN
  31:./ros_lib/ros/msg.h ****  * ANY WAY OUT OF THE USE OF THIS SOFTWARE, EVEN IF ADVISED OF THE
  32:./ros_lib/ros/msg.h ****  * POSSIBILITY OF SUCH DAMAGE.
  33:./ros_lib/ros/msg.h ****  */
  34:./ros_lib/ros/msg.h **** 
  35:./ros_lib/ros/msg.h **** #ifndef _ROS_MSG_H_
  36:./ros_lib/ros/msg.h **** #define _ROS_MSG_H_
  37:./ros_lib/ros/msg.h **** 
  38:./ros_lib/ros/msg.h **** #include <stdint.h>
  39:./ros_lib/ros/msg.h **** #include <stddef.h>
  40:./ros_lib/ros/msg.h **** #include <string.h>
  41:./ros_lib/ros/msg.h **** 
  42:./ros_lib/ros/msg.h **** namespace ros
  43:./ros_lib/ros/msg.h **** {
  44:./ros_lib/ros/msg.h **** 
  45:./ros_lib/ros/msg.h **** /* Base Message Type */
  46:./ros_lib/ros/msg.h **** class Msg
  47:./ros_lib/ros/msg.h **** {
  48:./ros_lib/ros/msg.h **** public:
  49:./ros_lib/ros/msg.h ****   virtual int serialize(unsigned char *outbuffer) const = 0;
  50:./ros_lib/ros/msg.h ****   virtual int deserialize(unsigned char *data) = 0;
  51:./ros_lib/ros/msg.h ****   virtual const char * getType() = 0;
  52:./ros_lib/ros/msg.h ****   virtual const char * getMD5() = 0;
  53:./ros_lib/ros/msg.h **** 
  54:./ros_lib/ros/msg.h ****   /**
  55:./ros_lib/ros/msg.h ****    * @brief This tricky function handles promoting a 32bit float to a 64bit
  56:./ros_lib/ros/msg.h ****    *        double, so that AVR can publish messages containing float64
  57:./ros_lib/ros/msg.h ****    *        fields, despite AVR having no native support for double.
  58:./ros_lib/ros/msg.h ****    *
  59:./ros_lib/ros/msg.h ****    * @param[out] outbuffer pointer for buffer to serialize to.
  60:./ros_lib/ros/msg.h ****    * @param[in] f value to serialize.
  61:./ros_lib/ros/msg.h ****    *
  62:./ros_lib/ros/msg.h ****    * @return number of bytes to advance the buffer pointer.
  63:./ros_lib/ros/msg.h ****    *
  64:./ros_lib/ros/msg.h ****    */
  65:./ros_lib/ros/msg.h ****   static int serializeAvrFloat64(unsigned char* outbuffer, const float f)
  66:./ros_lib/ros/msg.h ****   {
  67:./ros_lib/ros/msg.h ****     int32_t val;
  68:./ros_lib/ros/msg.h ****     memcpy(&val, &f, sizeof(val));
  69:./ros_lib/ros/msg.h **** 
  70:./ros_lib/ros/msg.h ****     int16_t exp = ((val >> 23) & 255);
  71:./ros_lib/ros/msg.h ****     uint32_t mantissa = val & 0x7FFFFF;
  72:./ros_lib/ros/msg.h **** 
  73:./ros_lib/ros/msg.h ****     if (exp == 255)
  74:./ros_lib/ros/msg.h ****     {
  75:./ros_lib/ros/msg.h ****       exp = 2047; // Special value for NaN, infinity etc.
  76:./ros_lib/ros/msg.h ****     }
  77:./ros_lib/ros/msg.h ****     else if (exp != 0)
  78:./ros_lib/ros/msg.h ****     {
  79:./ros_lib/ros/msg.h ****       exp += 1023 - 127; // Normal case
  80:./ros_lib/ros/msg.h ****     }
  81:./ros_lib/ros/msg.h ****     else if (!mantissa)
  82:./ros_lib/ros/msg.h ****     {
  83:./ros_lib/ros/msg.h ****       exp = 0; // Zero
  84:./ros_lib/ros/msg.h ****     }
  85:./ros_lib/ros/msg.h ****     else
  86:./ros_lib/ros/msg.h ****     {
  87:./ros_lib/ros/msg.h ****       // Denormalized value in float, will fit as normalized value in double
  88:./ros_lib/ros/msg.h ****       exp += 1023 - 127;
  89:./ros_lib/ros/msg.h ****       mantissa <<= 1;
  90:./ros_lib/ros/msg.h ****       while (!(mantissa & 0x800000))
  91:./ros_lib/ros/msg.h ****       {
  92:./ros_lib/ros/msg.h ****           mantissa <<= 1;
  93:./ros_lib/ros/msg.h ****           exp--;
  94:./ros_lib/ros/msg.h ****       }
  95:./ros_lib/ros/msg.h ****       mantissa &= 0x7FFFFF;
  96:./ros_lib/ros/msg.h ****     }
  97:./ros_lib/ros/msg.h **** 
  98:./ros_lib/ros/msg.h ****     *(outbuffer++) = 0;
  99:./ros_lib/ros/msg.h ****     *(outbuffer++) = 0;
 100:./ros_lib/ros/msg.h ****     *(outbuffer++) = 0;
 101:./ros_lib/ros/msg.h ****     *(outbuffer++) = (mantissa << 5) & 0xff;
 102:./ros_lib/ros/msg.h ****     *(outbuffer++) = (mantissa >> 3) & 0xff;
 103:./ros_lib/ros/msg.h ****     *(outbuffer++) = (mantissa >> 11) & 0xff;
 104:./ros_lib/ros/msg.h ****     *(outbuffer++) = ((exp << 4) & 0xF0) | ((mantissa >> 19) & 0x0F);
 105:./ros_lib/ros/msg.h ****     *(outbuffer++) = (exp >> 4) & 0x7F;
 106:./ros_lib/ros/msg.h **** 
 107:./ros_lib/ros/msg.h ****     // Mark negative bit as necessary.
 108:./ros_lib/ros/msg.h ****     if (f < 0)
 109:./ros_lib/ros/msg.h ****     {
 110:./ros_lib/ros/msg.h ****       *(outbuffer - 1) |= 0x80;
 111:./ros_lib/ros/msg.h ****     }
 112:./ros_lib/ros/msg.h **** 
 113:./ros_lib/ros/msg.h ****     return 8;
 114:./ros_lib/ros/msg.h ****   }
 115:./ros_lib/ros/msg.h **** 
 116:./ros_lib/ros/msg.h ****   /**
 117:./ros_lib/ros/msg.h ****    * @brief This tricky function handles demoting a 64bit double to a
 118:./ros_lib/ros/msg.h ****    *        32bit float, so that AVR can understand messages containing
 119:./ros_lib/ros/msg.h ****    *        float64 fields, despite AVR having no native support for double.
 120:./ros_lib/ros/msg.h ****    *
 121:./ros_lib/ros/msg.h ****    * @param[in] inbuffer pointer for buffer to deserialize from.
 122:./ros_lib/ros/msg.h ****    * @param[out] f pointer to place the deserialized value in.
 123:./ros_lib/ros/msg.h ****    *
 124:./ros_lib/ros/msg.h ****    * @return number of bytes to advance the buffer pointer.
 125:./ros_lib/ros/msg.h ****    */
 126:./ros_lib/ros/msg.h ****   static int deserializeAvrFloat64(const unsigned char* inbuffer, float* f)
 127:./ros_lib/ros/msg.h ****   {
 128:./ros_lib/ros/msg.h ****     int16_t exp;
 129:./ros_lib/ros/msg.h ****     uint32_t mantissa;
 130:./ros_lib/ros/msg.h **** 
 131:./ros_lib/ros/msg.h ****     // Skip lowest 24 bits
 132:./ros_lib/ros/msg.h ****     inbuffer += 3;
 133:./ros_lib/ros/msg.h **** 
 134:./ros_lib/ros/msg.h ****     // Copy truncated mantissa.
 135:./ros_lib/ros/msg.h ****     mantissa = ((uint32_t)(*(inbuffer++)) >> 4 & 0x0F);
 136:./ros_lib/ros/msg.h ****     mantissa |= ((uint32_t)(*(inbuffer++)) & 0xff) << 4;
 137:./ros_lib/ros/msg.h ****     mantissa |= ((uint32_t)(*(inbuffer++)) & 0xff) << 12;
 138:./ros_lib/ros/msg.h ****     mantissa |= ((uint32_t)(*inbuffer) & 0x0f) << 20;
 139:./ros_lib/ros/msg.h **** 
 140:./ros_lib/ros/msg.h ****     // Copy exponent.
 141:./ros_lib/ros/msg.h ****     exp = ((uint32_t)(*(inbuffer++)) & 0xf0) >> 4;
 142:./ros_lib/ros/msg.h ****     exp |= ((uint32_t)(*inbuffer) & 0x7f) << 4;
 143:./ros_lib/ros/msg.h **** 
 144:./ros_lib/ros/msg.h ****     if (exp == 2047)
 145:./ros_lib/ros/msg.h ****     {
 146:./ros_lib/ros/msg.h ****       exp = 255; // NaN, infinity etc.
 147:./ros_lib/ros/msg.h ****     }
 148:./ros_lib/ros/msg.h ****     else if (exp - 1023 > 127)
 149:./ros_lib/ros/msg.h ****     {
 150:./ros_lib/ros/msg.h ****       exp = 255;
 151:./ros_lib/ros/msg.h ****       mantissa = 0; // Too large for float, convert to infinity
 152:./ros_lib/ros/msg.h ****     }
 153:./ros_lib/ros/msg.h ****     else if (exp - 1023 >= -126)
 154:./ros_lib/ros/msg.h ****     {
 155:./ros_lib/ros/msg.h ****       exp -= 1023 - 127; // Normal case
 156:./ros_lib/ros/msg.h ****     }
 157:./ros_lib/ros/msg.h ****     else if (exp - 1023 < -150)
 158:./ros_lib/ros/msg.h ****     {
 159:./ros_lib/ros/msg.h ****       exp = 0; // Too small or zero
 160:./ros_lib/ros/msg.h ****     }
 161:./ros_lib/ros/msg.h ****     else
 162:./ros_lib/ros/msg.h ****     {
 163:./ros_lib/ros/msg.h ****       // Have to convert to denormalized representation for float
 164:./ros_lib/ros/msg.h ****       mantissa |= 0x1000000;
 165:./ros_lib/ros/msg.h ****       mantissa >>= ((-126 + 1023) - exp);
 166:./ros_lib/ros/msg.h ****       exp = 0;
 167:./ros_lib/ros/msg.h ****     }
 168:./ros_lib/ros/msg.h **** 
 169:./ros_lib/ros/msg.h ****     // Round off mantissa
 170:./ros_lib/ros/msg.h ****     if (mantissa != 0xFFFFFF)
 171:./ros_lib/ros/msg.h ****       mantissa += 1;
 172:./ros_lib/ros/msg.h **** 
 173:./ros_lib/ros/msg.h ****     mantissa >>= 1;
 174:./ros_lib/ros/msg.h **** 
 175:./ros_lib/ros/msg.h ****     // Put mantissa and exponent into place
 176:./ros_lib/ros/msg.h ****     uint32_t val = mantissa;
 177:./ros_lib/ros/msg.h ****     val |= static_cast<uint32_t>(exp) << 23;
 178:./ros_lib/ros/msg.h **** 
 179:./ros_lib/ros/msg.h ****     // Copy negative sign.
 180:./ros_lib/ros/msg.h ****     val |= (static_cast<uint32_t>(*(inbuffer++)) & 0x80) << 24;
 181:./ros_lib/ros/msg.h **** 
 182:./ros_lib/ros/msg.h ****     memcpy(f, &val, sizeof(val));
 183:./ros_lib/ros/msg.h ****     return 8;
 184:./ros_lib/ros/msg.h ****   }
 185:./ros_lib/ros/msg.h **** 
 186:./ros_lib/ros/msg.h ****   // Copy data from variable into a byte array
 187:./ros_lib/ros/msg.h ****   template<typename A, typename V>
 188:./ros_lib/ros/msg.h ****   static void varToArr(A arr, const V var)
 1277               		.loc 12 188 0
 1278               		.cfi_startproc
 1279               	.LVL103:
 1280               		.loc 12 188 0
 1281 0000 CF92      		push r12
 1282               	.LCFI31:
 1283               		.cfi_def_cfa_offset 4
 1284               		.cfi_offset 12, -3
 1285 0002 DF92      		push r13
 1286               	.LCFI32:
 1287               		.cfi_def_cfa_offset 5
 1288               		.cfi_offset 13, -4
 1289 0004 EF92      		push r14
 1290               	.LCFI33:
 1291               		.cfi_def_cfa_offset 6
 1292               		.cfi_offset 14, -5
 1293 0006 FF92      		push r15
 1294               	.LCFI34:
 1295               		.cfi_def_cfa_offset 7
 1296               		.cfi_offset 15, -6
 1297               	/* prologue: function */
 1298               	/* frame size = 0 */
 1299               	/* stack size = 4 */
 1300               	.L__stack_usage = 4
 1301               	.LVL104:
 1302               		.loc 12 188 0
 1303 0008 20E0      		ldi r18,0
 1304 000a 30E0      		ldi r19,0
 1305               	.LVL105:
 1306               	.L40:
 1307               	.LBB114:
 189:./ros_lib/ros/msg.h ****   {
 190:./ros_lib/ros/msg.h ****     for (size_t i = 0; i < sizeof(V); i++)
 191:./ros_lib/ros/msg.h ****       arr[i] = (var >> (8 * i));
 1308               		.loc 12 191 0 discriminator 2
 1309 000c 6A01      		movw r12,r20
 1310 000e 7B01      		movw r14,r22
 1311 0010 022E      		mov r0,r18
 1312 0012 00C0      		rjmp 2f
 1313               		1:
 1314 0014 F694      		lsr r15
 1315 0016 E794      		ror r14
 1316 0018 D794      		ror r13
 1317 001a C794      		ror r12
 1318               		2:
 1319 001c 0A94      		dec r0
 1320 001e 02F4      		brpl 1b
 1321 0020 FC01      		movw r30,r24
 1322 0022 C192      		st Z+,r12
 1323 0024 CF01      		movw r24,r30
 1324               	.LVL106:
 1325 0026 285F      		subi r18,-8
 1326 0028 3F4F      		sbci r19,-1
 190:./ros_lib/ros/msg.h ****       arr[i] = (var >> (8 * i));
 1327               		.loc 12 190 0 discriminator 2
 1328 002a 2032      		cpi r18,32
 1329 002c 3105      		cpc r19,__zero_reg__
 1330 002e 01F4      		brne .L40
 1331               	/* epilogue start */
 1332               	.LBE114:
 192:./ros_lib/ros/msg.h ****   }
 1333               		.loc 12 192 0
 1334 0030 FF90      		pop r15
 1335 0032 EF90      		pop r14
 1336 0034 DF90      		pop r13
 1337 0036 CF90      		pop r12
 1338 0038 0895      		ret
 1339               		.cfi_endproc
 1340               	.LFE176:
 1342               		.section	.text._ZNK8std_msgs19MultiArrayDimension9serializeEPh,"axG",@progbits,_ZNK8std_msgs19Mult
 1343               		.weak	_ZNK8std_msgs19MultiArrayDimension9serializeEPh
 1345               	_ZNK8std_msgs19MultiArrayDimension9serializeEPh:
 1346               	.LFB149:
  29:./ros_lib/std_msgs/MultiArrayDimension.h ****     {
 1347               		.loc 5 29 0
 1348               		.cfi_startproc
 1349               	.LVL107:
 1350 0000 EF92      		push r14
 1351               	.LCFI35:
 1352               		.cfi_def_cfa_offset 4
 1353               		.cfi_offset 14, -3
 1354 0002 FF92      		push r15
 1355               	.LCFI36:
 1356               		.cfi_def_cfa_offset 5
 1357               		.cfi_offset 15, -4
 1358 0004 0F93      		push r16
 1359               	.LCFI37:
 1360               		.cfi_def_cfa_offset 6
 1361               		.cfi_offset 16, -5
 1362 0006 1F93      		push r17
 1363               	.LCFI38:
 1364               		.cfi_def_cfa_offset 7
 1365               		.cfi_offset 17, -6
 1366 0008 CF93      		push r28
 1367               	.LCFI39:
 1368               		.cfi_def_cfa_offset 8
 1369               		.cfi_offset 28, -7
 1370 000a DF93      		push r29
 1371               	.LCFI40:
 1372               		.cfi_def_cfa_offset 9
 1373               		.cfi_offset 29, -8
 1374               	/* prologue: function */
 1375               	/* frame size = 0 */
 1376               	/* stack size = 6 */
 1377               	.L__stack_usage = 6
 1378 000c EC01      		movw r28,r24
 1379 000e 8B01      		movw r16,r22
 1380               	.LVL108:
  32:./ros_lib/std_msgs/MultiArrayDimension.h ****       varToArr(outbuffer + offset, length_label);
 1381               		.loc 5 32 0
 1382 0010 AA81      		ldd r26,Y+2
 1383 0012 BB81      		ldd r27,Y+3
 1384 0014 FD01      		movw r30,r26
 1385               		0:
 1386 0016 0190      		ld __tmp_reg__,Z+
 1387 0018 0020      		tst __tmp_reg__
 1388 001a 01F4      		brne 0b
 1389 001c 3197      		sbiw r30,1
 1390 001e 7F01      		movw r14,r30
 1391 0020 EA1A      		sub r14,r26
 1392 0022 FB0A      		sbc r15,r27
 1393               	.LVL109:
  33:./ros_lib/std_msgs/MultiArrayDimension.h ****       offset += 4;
 1394               		.loc 5 33 0
 1395 0024 A701      		movw r20,r14
 1396 0026 60E0      		ldi r22,0
 1397 0028 70E0      		ldi r23,0
 1398               	.LVL110:
 1399 002a C801      		movw r24,r16
 1400               	.LVL111:
 1401 002c 0E94 0000 		call _ZN3ros3Msg8varToArrIPhmEEvT_T0_
 1402               	.LVL112:
  35:./ros_lib/std_msgs/MultiArrayDimension.h ****       offset += length_label;
 1403               		.loc 5 35 0
 1404 0030 6A81      		ldd r22,Y+2
 1405 0032 7B81      		ldd r23,Y+3
 1406 0034 A701      		movw r20,r14
 1407 0036 C801      		movw r24,r16
 1408 0038 0496      		adiw r24,4
 1409 003a 0E94 0000 		call memcpy
 1410               	.LVL113:
  37:./ros_lib/std_msgs/MultiArrayDimension.h ****       *(outbuffer + offset + 1) = (this->size >> (8 * 1)) & 0xFF;
 1411               		.loc 5 37 0
 1412 003e F801      		movw r30,r16
 1413 0040 EE0D      		add r30,r14
 1414 0042 FF1D      		adc r31,r15
 1415 0044 8C81      		ldd r24,Y+4
 1416 0046 8483      		std Z+4,r24
  38:./ros_lib/std_msgs/MultiArrayDimension.h ****       *(outbuffer + offset + 2) = (this->size >> (8 * 2)) & 0xFF;
 1417               		.loc 5 38 0
 1418 0048 8D81      		ldd r24,Y+5
 1419 004a 8583      		std Z+5,r24
  39:./ros_lib/std_msgs/MultiArrayDimension.h ****       *(outbuffer + offset + 3) = (this->size >> (8 * 3)) & 0xFF;
 1420               		.loc 5 39 0
 1421 004c 8E81      		ldd r24,Y+6
 1422 004e 8683      		std Z+6,r24
  40:./ros_lib/std_msgs/MultiArrayDimension.h ****       offset += sizeof(this->size);
 1423               		.loc 5 40 0
 1424 0050 8F81      		ldd r24,Y+7
 1425 0052 8783      		std Z+7,r24
 1426               	.LVL114:
  42:./ros_lib/std_msgs/MultiArrayDimension.h ****       *(outbuffer + offset + 1) = (this->stride >> (8 * 1)) & 0xFF;
 1427               		.loc 5 42 0
 1428 0054 8885      		ldd r24,Y+8
 1429 0056 8087      		std Z+8,r24
  43:./ros_lib/std_msgs/MultiArrayDimension.h ****       *(outbuffer + offset + 2) = (this->stride >> (8 * 2)) & 0xFF;
 1430               		.loc 5 43 0
 1431 0058 8985      		ldd r24,Y+9
 1432 005a 8187      		std Z+9,r24
  44:./ros_lib/std_msgs/MultiArrayDimension.h ****       *(outbuffer + offset + 3) = (this->stride >> (8 * 3)) & 0xFF;
 1433               		.loc 5 44 0
 1434 005c 8A85      		ldd r24,Y+10
 1435 005e 8287      		std Z+10,r24
  45:./ros_lib/std_msgs/MultiArrayDimension.h ****       offset += sizeof(this->stride);
 1436               		.loc 5 45 0
 1437 0060 8B85      		ldd r24,Y+11
 1438 0062 8387      		std Z+11,r24
 1439               	.LVL115:
  48:./ros_lib/std_msgs/MultiArrayDimension.h **** 
 1440               		.loc 5 48 0
 1441 0064 C701      		movw r24,r14
 1442 0066 0C96      		adiw r24,12
 1443               	.LVL116:
 1444               	/* epilogue start */
 1445 0068 DF91      		pop r29
 1446 006a CF91      		pop r28
 1447               	.LVL117:
 1448 006c 1F91      		pop r17
 1449 006e 0F91      		pop r16
 1450               	.LVL118:
 1451 0070 FF90      		pop r15
 1452 0072 EF90      		pop r14
 1453               	.LVL119:
 1454 0074 0895      		ret
 1455               		.cfi_endproc
 1456               	.LFE149:
 1458               		.section	.text._ZNK14rosserial_msgs20RequestParamResponse9serializeEPh,"axG",@progbits,_ZNK14rosse
 1459               		.weak	_ZNK14rosserial_msgs20RequestParamResponse9serializeEPh
 1461               	_ZNK14rosserial_msgs20RequestParamResponse9serializeEPh:
 1462               	.LFB61:
  78:./ros_lib/rosserial_msgs/RequestParam.h ****     {
 1463               		.loc 4 78 0
 1464               		.cfi_startproc
 1465               	.LVL120:
 1466 0000 4F92      		push r4
 1467               	.LCFI41:
 1468               		.cfi_def_cfa_offset 4
 1469               		.cfi_offset 4, -3
 1470 0002 5F92      		push r5
 1471               	.LCFI42:
 1472               		.cfi_def_cfa_offset 5
 1473               		.cfi_offset 5, -4
 1474 0004 6F92      		push r6
 1475               	.LCFI43:
 1476               		.cfi_def_cfa_offset 6
 1477               		.cfi_offset 6, -5
 1478 0006 7F92      		push r7
 1479               	.LCFI44:
 1480               		.cfi_def_cfa_offset 7
 1481               		.cfi_offset 7, -6
 1482 0008 AF92      		push r10
 1483               	.LCFI45:
 1484               		.cfi_def_cfa_offset 8
 1485               		.cfi_offset 10, -7
 1486 000a BF92      		push r11
 1487               	.LCFI46:
 1488               		.cfi_def_cfa_offset 9
 1489               		.cfi_offset 11, -8
 1490 000c CF92      		push r12
 1491               	.LCFI47:
 1492               		.cfi_def_cfa_offset 10
 1493               		.cfi_offset 12, -9
 1494 000e DF92      		push r13
 1495               	.LCFI48:
 1496               		.cfi_def_cfa_offset 11
 1497               		.cfi_offset 13, -10
 1498 0010 EF92      		push r14
 1499               	.LCFI49:
 1500               		.cfi_def_cfa_offset 12
 1501               		.cfi_offset 14, -11
 1502 0012 FF92      		push r15
 1503               	.LCFI50:
 1504               		.cfi_def_cfa_offset 13
 1505               		.cfi_offset 15, -12
 1506 0014 0F93      		push r16
 1507               	.LCFI51:
 1508               		.cfi_def_cfa_offset 14
 1509               		.cfi_offset 16, -13
 1510 0016 1F93      		push r17
 1511               	.LCFI52:
 1512               		.cfi_def_cfa_offset 15
 1513               		.cfi_offset 17, -14
 1514 0018 CF93      		push r28
 1515               	.LCFI53:
 1516               		.cfi_def_cfa_offset 16
 1517               		.cfi_offset 28, -15
 1518 001a DF93      		push r29
 1519               	.LCFI54:
 1520               		.cfi_def_cfa_offset 17
 1521               		.cfi_offset 29, -16
 1522               	/* prologue: function */
 1523               	/* frame size = 0 */
 1524               	/* stack size = 14 */
 1525               	.L__stack_usage = 14
 1526 001c EC01      		movw r28,r24
 1527 001e 8B01      		movw r16,r22
 1528               	.LVL121:
  81:./ros_lib/rosserial_msgs/RequestParam.h ****       *(outbuffer + offset + 1) = (this->ints_length >> (8 * 1)) & 0xFF;
 1529               		.loc 4 81 0
 1530 0020 8A81      		ldd r24,Y+2
 1531               	.LVL122:
 1532 0022 FB01      		movw r30,r22
 1533 0024 8083      		st Z,r24
  82:./ros_lib/rosserial_msgs/RequestParam.h ****       *(outbuffer + offset + 2) = (this->ints_length >> (8 * 2)) & 0xFF;
 1534               		.loc 4 82 0
 1535 0026 8B81      		ldd r24,Y+3
 1536 0028 8183      		std Z+1,r24
  83:./ros_lib/rosserial_msgs/RequestParam.h ****       *(outbuffer + offset + 3) = (this->ints_length >> (8 * 3)) & 0xFF;
 1537               		.loc 4 83 0
 1538 002a 8C81      		ldd r24,Y+4
 1539 002c 8283      		std Z+2,r24
  84:./ros_lib/rosserial_msgs/RequestParam.h ****       offset += sizeof(this->ints_length);
 1540               		.loc 4 84 0
 1541 002e 8D81      		ldd r24,Y+5
 1542 0030 8383      		std Z+3,r24
 1543               	.LVL123:
 1544 0032 DB01      		movw r26,r22
 1545               	.LBB115:
  86:./ros_lib/rosserial_msgs/RequestParam.h ****       union {
 1546               		.loc 4 86 0
 1547 0034 40E0      		ldi r20,0
 1548 0036 50E0      		ldi r21,0
 1549 0038 BA01      		movw r22,r20
 1550               	.LBE115:
  85:./ros_lib/rosserial_msgs/RequestParam.h ****       for( uint32_t i = 0; i < ints_length; i++){
 1551               		.loc 4 85 0
 1552 003a E4E0      		ldi r30,lo8(4)
 1553 003c F0E0      		ldi r31,0
 1554               	.LVL124:
 1555               	.L45:
 1556 003e 1496      		adiw r26,4
 1557               	.LBB117:
  86:./ros_lib/rosserial_msgs/RequestParam.h ****       union {
 1558               		.loc 4 86 0 discriminator 3
 1559 0040 CA80      		ldd r12,Y+2
 1560 0042 DB80      		ldd r13,Y+3
 1561 0044 EC80      		ldd r14,Y+4
 1562 0046 FD80      		ldd r15,Y+5
 1563 0048 CF01      		movw r24,r30
 1564 004a 0496      		adiw r24,4
 1565 004c 4C15      		cp r20,r12
 1566 004e 5D05      		cpc r21,r13
 1567 0050 6E05      		cpc r22,r14
 1568 0052 7F05      		cpc r23,r15
 1569 0054 00F4      		brsh .L44
 1570               	.LBB116:
  91:./ros_lib/rosserial_msgs/RequestParam.h ****       *(outbuffer + offset + 0) = (u_intsi.base >> (8 * 0)) & 0xFF;
 1571               		.loc 4 91 0 discriminator 2
 1572 0056 2A85      		ldd r18,Y+10
 1573 0058 3B85      		ldd r19,Y+11
 1574 005a E20F      		add r30,r18
 1575 005c F31F      		adc r31,r19
 1576 005e 3497      		sbiw r30,4
 1577 0060 D080      		ld r13,Z
 1578               	.LVL125:
  92:./ros_lib/rosserial_msgs/RequestParam.h ****       *(outbuffer + offset + 1) = (u_intsi.base >> (8 * 1)) & 0xFF;
 1579               		.loc 4 92 0 discriminator 2
 1580 0062 F180      		ldd r15,Z+1
 1581 0064 3281      		ldd r19,Z+2
 1582 0066 2381      		ldd r18,Z+3
 1583 0068 DC92      		st X,r13
 1584               	.LVL126:
  93:./ros_lib/rosserial_msgs/RequestParam.h ****       *(outbuffer + offset + 2) = (u_intsi.base >> (8 * 2)) & 0xFF;
 1585               		.loc 4 93 0 discriminator 2
 1586 006a 1196      		adiw r26,1
 1587 006c FC92      		st X,r15
 1588 006e 1197      		sbiw r26,1
  94:./ros_lib/rosserial_msgs/RequestParam.h ****       *(outbuffer + offset + 3) = (u_intsi.base >> (8 * 3)) & 0xFF;
 1589               		.loc 4 94 0 discriminator 2
 1590 0070 1296      		adiw r26,2
 1591 0072 3C93      		st X,r19
 1592 0074 1297      		sbiw r26,2
  95:./ros_lib/rosserial_msgs/RequestParam.h ****       offset += sizeof(this->ints[i]);
 1593               		.loc 4 95 0 discriminator 2
 1594 0076 1396      		adiw r26,3
 1595 0078 2C93      		st X,r18
 1596 007a 1397      		sbiw r26,3
 1597               	.LVL127:
 1598 007c FC01      		movw r30,r24
 1599               	.LVL128:
 1600               	.LBE116:
  86:./ros_lib/rosserial_msgs/RequestParam.h ****       union {
 1601               		.loc 4 86 0 discriminator 2
 1602 007e 4F5F      		subi r20,-1
 1603 0080 5F4F      		sbci r21,-1
 1604 0082 6F4F      		sbci r22,-1
 1605 0084 7F4F      		sbci r23,-1
 1606               	.LVL129:
 1607 0086 00C0      		rjmp .L45
 1608               	.LVL130:
 1609               	.L44:
 1610               	.LBE117:
  98:./ros_lib/rosserial_msgs/RequestParam.h ****       *(outbuffer + offset + 1) = (this->floats_length >> (8 * 1)) & 0xFF;
 1611               		.loc 4 98 0
 1612 0088 5F01      		movw r10,r30
 1613 008a A00E      		add r10,r16
 1614 008c B11E      		adc r11,r17
 1615 008e 2C85      		ldd r18,Y+12
 1616 0090 F501      		movw r30,r10
 1617 0092 2083      		st Z,r18
  99:./ros_lib/rosserial_msgs/RequestParam.h ****       *(outbuffer + offset + 2) = (this->floats_length >> (8 * 2)) & 0xFF;
 1618               		.loc 4 99 0
 1619 0094 2D85      		ldd r18,Y+13
 1620 0096 2183      		std Z+1,r18
 100:./ros_lib/rosserial_msgs/RequestParam.h ****       *(outbuffer + offset + 3) = (this->floats_length >> (8 * 3)) & 0xFF;
 1621               		.loc 4 100 0
 1622 0098 2E85      		ldd r18,Y+14
 1623 009a 2283      		std Z+2,r18
 101:./ros_lib/rosserial_msgs/RequestParam.h ****       offset += sizeof(this->floats_length);
 1624               		.loc 4 101 0
 1625 009c 2F85      		ldd r18,Y+15
 1626 009e 2383      		std Z+3,r18
 1627               	.LVL131:
 1628 00a0 D501      		movw r26,r10
 1629               	.LBB118:
 103:./ros_lib/rosserial_msgs/RequestParam.h ****       union {
 1630               		.loc 4 103 0
 1631 00a2 40E0      		ldi r20,0
 1632 00a4 50E0      		ldi r21,0
 1633 00a6 BA01      		movw r22,r20
 1634               	.LVL132:
 1635               	.L47:
 103:./ros_lib/rosserial_msgs/RequestParam.h ****       union {
 1636               		.loc 4 103 0 is_stmt 0 discriminator 3
 1637 00a8 CC84      		ldd r12,Y+12
 1638 00aa DD84      		ldd r13,Y+13
 1639 00ac EE84      		ldd r14,Y+14
 1640 00ae FF84      		ldd r15,Y+15
 1641 00b0 9C01      		movw r18,r24
 1642 00b2 2C5F      		subi r18,-4
 1643 00b4 3F4F      		sbci r19,-1
 1644 00b6 4C15      		cp r20,r12
 1645 00b8 5D05      		cpc r21,r13
 1646 00ba 6E05      		cpc r22,r14
 1647 00bc 7F05      		cpc r23,r15
 1648 00be 00F4      		brsh .L46
 1649               	.LVL133:
 1650               	.LBB119:
 108:./ros_lib/rosserial_msgs/RequestParam.h ****       *(outbuffer + offset + 0) = (u_floatsi.base >> (8 * 0)) & 0xFF;
 1651               		.loc 4 108 0 is_stmt 1 discriminator 2
 1652 00c0 CD01      		movw r24,r26
 1653               	.LVL134:
 1654 00c2 8A19      		sub r24,r10
 1655 00c4 9B09      		sbc r25,r11
 1656 00c6 EC88      		ldd r14,Y+20
 1657 00c8 FD88      		ldd r15,Y+21
 1658 00ca 8E0D      		add r24,r14
 1659 00cc 9F1D      		adc r25,r15
 109:./ros_lib/rosserial_msgs/RequestParam.h ****       *(outbuffer + offset + 1) = (u_floatsi.base >> (8 * 1)) & 0xFF;
 1660               		.loc 4 109 0 discriminator 2
 1661 00ce FC01      		movw r30,r24
 1662 00d0 D080      		ld r13,Z
 1663 00d2 E180      		ldd r14,Z+1
 1664 00d4 F280      		ldd r15,Z+2
 1665 00d6 8381      		ldd r24,Z+3
 1666 00d8 1496      		adiw r26,4
 1667 00da DC92      		st X,r13
 1668 00dc 1497      		sbiw r26,4
 110:./ros_lib/rosserial_msgs/RequestParam.h ****       *(outbuffer + offset + 2) = (u_floatsi.base >> (8 * 2)) & 0xFF;
 1669               		.loc 4 110 0 discriminator 2
 1670 00de 1596      		adiw r26,5
 1671 00e0 EC92      		st X,r14
 1672 00e2 1597      		sbiw r26,5
 111:./ros_lib/rosserial_msgs/RequestParam.h ****       *(outbuffer + offset + 3) = (u_floatsi.base >> (8 * 3)) & 0xFF;
 1673               		.loc 4 111 0 discriminator 2
 1674 00e4 1696      		adiw r26,6
 1675 00e6 FC92      		st X,r15
 1676 00e8 1697      		sbiw r26,6
 112:./ros_lib/rosserial_msgs/RequestParam.h ****       offset += sizeof(this->floats[i]);
 1677               		.loc 4 112 0 discriminator 2
 1678 00ea 1796      		adiw r26,7
 1679 00ec 8C93      		st X,r24
 1680 00ee 1797      		sbiw r26,7
 1681 00f0 C901      		movw r24,r18
 1682               	.LVL135:
 1683               	.LBE119:
 103:./ros_lib/rosserial_msgs/RequestParam.h ****       union {
 1684               		.loc 4 103 0 discriminator 2
 1685 00f2 4F5F      		subi r20,-1
 1686 00f4 5F4F      		sbci r21,-1
 1687 00f6 6F4F      		sbci r22,-1
 1688 00f8 7F4F      		sbci r23,-1
 1689               	.LVL136:
 1690 00fa 1496      		adiw r26,4
 1691 00fc 00C0      		rjmp .L47
 1692               	.LVL137:
 1693               	.L46:
 1694               	.LBE118:
 115:./ros_lib/rosserial_msgs/RequestParam.h ****       *(outbuffer + offset + 1) = (this->strings_length >> (8 * 1)) & 0xFF;
 1695               		.loc 4 115 0
 1696 00fe F801      		movw r30,r16
 1697 0100 E80F      		add r30,r24
 1698 0102 F91F      		adc r31,r25
 1699 0104 8E89      		ldd r24,Y+22
 1700               	.LVL138:
 1701 0106 8083      		st Z,r24
 116:./ros_lib/rosserial_msgs/RequestParam.h ****       *(outbuffer + offset + 2) = (this->strings_length >> (8 * 2)) & 0xFF;
 1702               		.loc 4 116 0
 1703 0108 8F89      		ldd r24,Y+23
 1704 010a 8183      		std Z+1,r24
 117:./ros_lib/rosserial_msgs/RequestParam.h ****       *(outbuffer + offset + 3) = (this->strings_length >> (8 * 3)) & 0xFF;
 1705               		.loc 4 117 0
 1706 010c 888D      		ldd r24,Y+24
 1707 010e 8283      		std Z+2,r24
 118:./ros_lib/rosserial_msgs/RequestParam.h ****       offset += sizeof(this->strings_length);
 1708               		.loc 4 118 0
 1709 0110 898D      		ldd r24,Y+25
 1710 0112 8383      		std Z+3,r24
 119:./ros_lib/rosserial_msgs/RequestParam.h ****       for( uint32_t i = 0; i < strings_length; i++){
 1711               		.loc 4 119 0
 1712 0114 7901      		movw r14,r18
 1713               	.LVL139:
 1714 0116 A12C      		mov r10,__zero_reg__
 1715 0118 B12C      		mov r11,__zero_reg__
 1716               	.LBB120:
 120:./ros_lib/rosserial_msgs/RequestParam.h ****       uint32_t length_stringsi = strlen(this->strings[i]);
 1717               		.loc 4 120 0
 1718 011a 412C      		mov r4,__zero_reg__
 1719 011c 512C      		mov r5,__zero_reg__
 1720 011e 3201      		movw r6,r4
 1721               	.LVL140:
 1722               	.L49:
 120:./ros_lib/rosserial_msgs/RequestParam.h ****       uint32_t length_stringsi = strlen(this->strings[i]);
 1723               		.loc 4 120 0 is_stmt 0 discriminator 3
 1724 0120 8E89      		ldd r24,Y+22
 1725 0122 9F89      		ldd r25,Y+23
 1726 0124 A88D      		ldd r26,Y+24
 1727 0126 B98D      		ldd r27,Y+25
 1728 0128 4816      		cp r4,r24
 1729 012a 5906      		cpc r5,r25
 1730 012c 6A06      		cpc r6,r26
 1731 012e 7B06      		cpc r7,r27
 1732 0130 00F4      		brsh .L48
 1733               	.LBB121:
 121:./ros_lib/rosserial_msgs/RequestParam.h ****       varToArr(outbuffer + offset, length_stringsi);
 1734               		.loc 4 121 0 is_stmt 1 discriminator 2
 1735 0132 EC8D      		ldd r30,Y+28
 1736 0134 FD8D      		ldd r31,Y+29
 1737 0136 EA0D      		add r30,r10
 1738 0138 FB1D      		adc r31,r11
 1739 013a A081      		ld r26,Z
 1740 013c B181      		ldd r27,Z+1
 1741 013e FD01      		movw r30,r26
 1742               		0:
 1743 0140 0190      		ld __tmp_reg__,Z+
 1744 0142 0020      		tst __tmp_reg__
 1745 0144 01F4      		brne 0b
 1746 0146 3197      		sbiw r30,1
 1747 0148 6F01      		movw r12,r30
 1748 014a CA1A      		sub r12,r26
 1749 014c DB0A      		sbc r13,r27
 1750               	.LVL141:
 122:./ros_lib/rosserial_msgs/RequestParam.h ****       offset += 4;
 1751               		.loc 4 122 0 discriminator 2
 1752 014e A601      		movw r20,r12
 1753 0150 60E0      		ldi r22,0
 1754 0152 70E0      		ldi r23,0
 1755 0154 C801      		movw r24,r16
 1756 0156 8E0D      		add r24,r14
 1757 0158 9F1D      		adc r25,r15
 1758 015a 0E94 0000 		call _ZN3ros3Msg8varToArrIPhmEEvT_T0_
 1759               	.LVL142:
 124:./ros_lib/rosserial_msgs/RequestParam.h ****       offset += length_stringsi;
 1760               		.loc 4 124 0 discriminator 2
 1761 015e F4E0      		ldi r31,4
 1762 0160 EF0E      		add r14,r31
 1763 0162 F11C      		adc r15,__zero_reg__
 1764               	.LVL143:
 1765 0164 EC8D      		ldd r30,Y+28
 1766 0166 FD8D      		ldd r31,Y+29
 1767 0168 EA0D      		add r30,r10
 1768 016a FB1D      		adc r31,r11
 1769 016c 6081      		ld r22,Z
 1770 016e 7181      		ldd r23,Z+1
 1771 0170 A601      		movw r20,r12
 1772 0172 C801      		movw r24,r16
 1773 0174 8E0D      		add r24,r14
 1774 0176 9F1D      		adc r25,r15
 1775 0178 0E94 0000 		call memcpy
 1776               	.LVL144:
 125:./ros_lib/rosserial_msgs/RequestParam.h ****       }
 1777               		.loc 4 125 0 discriminator 2
 1778 017c EC0C      		add r14,r12
 1779 017e FD1C      		adc r15,r13
 1780               	.LVL145:
 1781               	.LBE121:
 120:./ros_lib/rosserial_msgs/RequestParam.h ****       uint32_t length_stringsi = strlen(this->strings[i]);
 1782               		.loc 4 120 0 discriminator 2
 1783 0180 8FEF      		ldi r24,-1
 1784 0182 481A      		sub r4,r24
 1785 0184 580A      		sbc r5,r24
 1786 0186 680A      		sbc r6,r24
 1787 0188 780A      		sbc r7,r24
 1788               	.LVL146:
 1789 018a E2E0      		ldi r30,2
 1790 018c AE0E      		add r10,r30
 1791 018e B11C      		adc r11,__zero_reg__
 1792 0190 00C0      		rjmp .L49
 1793               	.LVL147:
 1794               	.L48:
 1795               	.LBE120:
 128:./ros_lib/rosserial_msgs/RequestParam.h **** 
 1796               		.loc 4 128 0
 1797 0192 C701      		movw r24,r14
 1798               	/* epilogue start */
 1799 0194 DF91      		pop r29
 1800 0196 CF91      		pop r28
 1801               	.LVL148:
 1802 0198 1F91      		pop r17
 1803 019a 0F91      		pop r16
 1804               	.LVL149:
 1805 019c FF90      		pop r15
 1806 019e EF90      		pop r14
 1807               	.LVL150:
 1808 01a0 DF90      		pop r13
 1809 01a2 CF90      		pop r12
 1810 01a4 BF90      		pop r11
 1811 01a6 AF90      		pop r10
 1812 01a8 7F90      		pop r7
 1813 01aa 6F90      		pop r6
 1814 01ac 5F90      		pop r5
 1815 01ae 4F90      		pop r4
 1816               	.LVL151:
 1817 01b0 0895      		ret
 1818               		.cfi_endproc
 1819               	.LFE61:
 1821               		.section	.text._ZNK14rosserial_msgs3Log9serializeEPh,"axG",@progbits,_ZNK14rosserial_msgs3Log9seri
 1822               		.weak	_ZNK14rosserial_msgs3Log9serializeEPh
 1824               	_ZNK14rosserial_msgs3Log9serializeEPh:
 1825               	.LFB47:
  31:./ros_lib/rosserial_msgs/Log.h ****     {
 1826               		.loc 3 31 0
 1827               		.cfi_startproc
 1828               	.LVL152:
 1829 0000 EF92      		push r14
 1830               	.LCFI55:
 1831               		.cfi_def_cfa_offset 4
 1832               		.cfi_offset 14, -3
 1833 0002 FF92      		push r15
 1834               	.LCFI56:
 1835               		.cfi_def_cfa_offset 5
 1836               		.cfi_offset 15, -4
 1837 0004 0F93      		push r16
 1838               	.LCFI57:
 1839               		.cfi_def_cfa_offset 6
 1840               		.cfi_offset 16, -5
 1841 0006 1F93      		push r17
 1842               	.LCFI58:
 1843               		.cfi_def_cfa_offset 7
 1844               		.cfi_offset 17, -6
 1845 0008 CF93      		push r28
 1846               	.LCFI59:
 1847               		.cfi_def_cfa_offset 8
 1848               		.cfi_offset 28, -7
 1849 000a DF93      		push r29
 1850               	.LCFI60:
 1851               		.cfi_def_cfa_offset 9
 1852               		.cfi_offset 29, -8
 1853               	/* prologue: function */
 1854               	/* frame size = 0 */
 1855               	/* stack size = 6 */
 1856               	.L__stack_usage = 6
 1857 000c 8C01      		movw r16,r24
 1858 000e 7B01      		movw r14,r22
 1859               	.LVL153:
  34:./ros_lib/rosserial_msgs/Log.h ****       offset += sizeof(this->level);
 1860               		.loc 3 34 0
 1861 0010 DC01      		movw r26,r24
 1862 0012 1296      		adiw r26,2
 1863 0014 2C91      		ld r18,X
 1864 0016 1297      		sbiw r26,2
 1865 0018 FB01      		movw r30,r22
 1866 001a 2193      		st Z+,r18
 1867 001c CF01      		movw r24,r30
 1868               	.LVL154:
  36:./ros_lib/rosserial_msgs/Log.h ****       varToArr(outbuffer + offset, length_msg);
 1869               		.loc 3 36 0
 1870 001e 1396      		adiw r26,3
 1871 0020 ED91      		ld r30,X+
 1872 0022 FC91      		ld r31,X
 1873 0024 1497      		sbiw r26,3+1
 1874 0026 EF01      		movw r28,r30
 1875               		0:
 1876 0028 0990      		ld __tmp_reg__,Y+
 1877 002a 0020      		tst __tmp_reg__
 1878 002c 01F4      		brne 0b
 1879 002e 2197      		sbiw r28,1
 1880 0030 CE1B      		sub r28,r30
 1881 0032 DF0B      		sbc r29,r31
 1882               	.LVL155:
  37:./ros_lib/rosserial_msgs/Log.h ****       offset += 4;
 1883               		.loc 3 37 0
 1884 0034 AE01      		movw r20,r28
 1885 0036 60E0      		ldi r22,0
 1886 0038 70E0      		ldi r23,0
 1887               	.LVL156:
 1888 003a 0E94 0000 		call _ZN3ros3Msg8varToArrIPhmEEvT_T0_
 1889               	.LVL157:
  39:./ros_lib/rosserial_msgs/Log.h ****       offset += length_msg;
 1890               		.loc 3 39 0
 1891 003e D801      		movw r26,r16
 1892 0040 1396      		adiw r26,3
 1893 0042 6D91      		ld r22,X+
 1894 0044 7C91      		ld r23,X
 1895 0046 1497      		sbiw r26,3+1
 1896 0048 AE01      		movw r20,r28
 1897 004a C701      		movw r24,r14
 1898 004c 0596      		adiw r24,5
 1899 004e 0E94 0000 		call memcpy
 1900               	.LVL158:
  42:./ros_lib/rosserial_msgs/Log.h **** 
 1901               		.loc 3 42 0
 1902 0052 CE01      		movw r24,r28
 1903 0054 0596      		adiw r24,5
 1904               	.LVL159:
 1905               	/* epilogue start */
 1906 0056 DF91      		pop r29
 1907 0058 CF91      		pop r28
 1908               	.LVL160:
 1909 005a 1F91      		pop r17
 1910 005c 0F91      		pop r16
 1911               	.LVL161:
 1912 005e FF90      		pop r15
 1913 0060 EF90      		pop r14
 1914               	.LVL162:
 1915 0062 0895      		ret
 1916               		.cfi_endproc
 1917               	.LFE47:
 1919               		.section	.text._ZNK14rosserial_msgs9TopicInfo9serializeEPh,"axG",@progbits,_ZNK14rosserial_msgs9To
 1920               		.weak	_ZNK14rosserial_msgs9TopicInfo9serializeEPh
 1922               	_ZNK14rosserial_msgs9TopicInfo9serializeEPh:
 1923               	.LFB40:
  43:./ros_lib/rosserial_msgs/TopicInfo.h ****     {
 1924               		.loc 2 43 0
 1925               		.cfi_startproc
 1926               	.LVL163:
 1927 0000 CF92      		push r12
 1928               	.LCFI61:
 1929               		.cfi_def_cfa_offset 4
 1930               		.cfi_offset 12, -3
 1931 0002 DF92      		push r13
 1932               	.LCFI62:
 1933               		.cfi_def_cfa_offset 5
 1934               		.cfi_offset 13, -4
 1935 0004 EF92      		push r14
 1936               	.LCFI63:
 1937               		.cfi_def_cfa_offset 6
 1938               		.cfi_offset 14, -5
 1939 0006 FF92      		push r15
 1940               	.LCFI64:
 1941               		.cfi_def_cfa_offset 7
 1942               		.cfi_offset 15, -6
 1943 0008 0F93      		push r16
 1944               	.LCFI65:
 1945               		.cfi_def_cfa_offset 8
 1946               		.cfi_offset 16, -7
 1947 000a 1F93      		push r17
 1948               	.LCFI66:
 1949               		.cfi_def_cfa_offset 9
 1950               		.cfi_offset 17, -8
 1951 000c CF93      		push r28
 1952               	.LCFI67:
 1953               		.cfi_def_cfa_offset 10
 1954               		.cfi_offset 28, -9
 1955 000e DF93      		push r29
 1956               	.LCFI68:
 1957               		.cfi_def_cfa_offset 11
 1958               		.cfi_offset 29, -10
 1959               	/* prologue: function */
 1960               	/* frame size = 0 */
 1961               	/* stack size = 8 */
 1962               	.L__stack_usage = 8
 1963 0010 7C01      		movw r14,r24
 1964 0012 8B01      		movw r16,r22
 1965               	.LVL164:
  46:./ros_lib/rosserial_msgs/TopicInfo.h ****       *(outbuffer + offset + 1) = (this->topic_id >> (8 * 1)) & 0xFF;
 1966               		.loc 2 46 0
 1967 0014 DC01      		movw r26,r24
 1968 0016 1296      		adiw r26,2
 1969 0018 8C91      		ld r24,X
 1970 001a 1297      		sbiw r26,2
 1971               	.LVL165:
 1972 001c FB01      		movw r30,r22
 1973 001e 8083      		st Z,r24
  47:./ros_lib/rosserial_msgs/TopicInfo.h ****       offset += sizeof(this->topic_id);
 1974               		.loc 2 47 0
 1975 0020 1396      		adiw r26,3
 1976 0022 8C91      		ld r24,X
 1977 0024 1397      		sbiw r26,3
 1978 0026 8183      		std Z+1,r24
 1979               	.LVL166:
  49:./ros_lib/rosserial_msgs/TopicInfo.h ****       varToArr(outbuffer + offset, length_topic_name);
 1980               		.loc 2 49 0
 1981 0028 1496      		adiw r26,4
 1982 002a ED91      		ld r30,X+
 1983 002c FC91      		ld r31,X
 1984 002e 1597      		sbiw r26,4+1
 1985 0030 EF01      		movw r28,r30
 1986               		0:
 1987 0032 0990      		ld __tmp_reg__,Y+
 1988 0034 0020      		tst __tmp_reg__
 1989 0036 01F4      		brne 0b
 1990 0038 2197      		sbiw r28,1
 1991 003a CE1B      		sub r28,r30
 1992 003c DF0B      		sbc r29,r31
 1993               	.LVL167:
  50:./ros_lib/rosserial_msgs/TopicInfo.h ****       offset += 4;
 1994               		.loc 2 50 0
 1995 003e AE01      		movw r20,r28
 1996 0040 60E0      		ldi r22,0
 1997 0042 70E0      		ldi r23,0
 1998               	.LVL168:
 1999 0044 C801      		movw r24,r16
 2000 0046 0296      		adiw r24,2
 2001 0048 0E94 0000 		call _ZN3ros3Msg8varToArrIPhmEEvT_T0_
 2002               	.LVL169:
  52:./ros_lib/rosserial_msgs/TopicInfo.h ****       offset += length_topic_name;
 2003               		.loc 2 52 0
 2004 004c D701      		movw r26,r14
 2005 004e 1496      		adiw r26,4
 2006 0050 6D91      		ld r22,X+
 2007 0052 7C91      		ld r23,X
 2008 0054 1597      		sbiw r26,4+1
 2009 0056 AE01      		movw r20,r28
 2010 0058 C801      		movw r24,r16
 2011 005a 0696      		adiw r24,6
 2012 005c 0E94 0000 		call memcpy
 2013               	.LVL170:
  53:./ros_lib/rosserial_msgs/TopicInfo.h ****       uint32_t length_message_type = strlen(this->message_type);
 2014               		.loc 2 53 0
 2015 0060 CE01      		movw r24,r28
 2016 0062 0696      		adiw r24,6
 2017               	.LVL171:
  54:./ros_lib/rosserial_msgs/TopicInfo.h ****       varToArr(outbuffer + offset, length_message_type);
 2018               		.loc 2 54 0
 2019 0064 F701      		movw r30,r14
 2020 0066 A681      		ldd r26,Z+6
 2021 0068 B781      		ldd r27,Z+7
 2022 006a FD01      		movw r30,r26
 2023               		0:
 2024 006c 0190      		ld __tmp_reg__,Z+
 2025 006e 0020      		tst __tmp_reg__
 2026 0070 01F4      		brne 0b
 2027 0072 3197      		sbiw r30,1
 2028 0074 6F01      		movw r12,r30
 2029 0076 CA1A      		sub r12,r26
 2030 0078 DB0A      		sbc r13,r27
 2031               	.LVL172:
  55:./ros_lib/rosserial_msgs/TopicInfo.h ****       offset += 4;
 2032               		.loc 2 55 0
 2033 007a A601      		movw r20,r12
 2034 007c 60E0      		ldi r22,0
 2035 007e 70E0      		ldi r23,0
 2036 0080 800F      		add r24,r16
 2037 0082 911F      		adc r25,r17
 2038               	.LVL173:
 2039 0084 0E94 0000 		call _ZN3ros3Msg8varToArrIPhmEEvT_T0_
 2040               	.LVL174:
  57:./ros_lib/rosserial_msgs/TopicInfo.h ****       offset += length_message_type;
 2041               		.loc 2 57 0
 2042 0088 2A96      		adiw r28,10
 2043               	.LVL175:
 2044 008a D701      		movw r26,r14
 2045 008c 1696      		adiw r26,6
 2046 008e 6D91      		ld r22,X+
 2047 0090 7C91      		ld r23,X
 2048 0092 1797      		sbiw r26,6+1
 2049 0094 A601      		movw r20,r12
 2050 0096 C801      		movw r24,r16
 2051 0098 8C0F      		add r24,r28
 2052 009a 9D1F      		adc r25,r29
 2053 009c 0E94 0000 		call memcpy
 2054               	.LVL176:
  58:./ros_lib/rosserial_msgs/TopicInfo.h ****       uint32_t length_md5sum = strlen(this->md5sum);
 2055               		.loc 2 58 0
 2056 00a0 CC0D      		add r28,r12
 2057 00a2 DD1D      		adc r29,r13
 2058               	.LVL177:
  59:./ros_lib/rosserial_msgs/TopicInfo.h ****       varToArr(outbuffer + offset, length_md5sum);
 2059               		.loc 2 59 0
 2060 00a4 D701      		movw r26,r14
 2061 00a6 1896      		adiw r26,8
 2062 00a8 ED91      		ld r30,X+
 2063 00aa FC91      		ld r31,X
 2064 00ac 1997      		sbiw r26,8+1
 2065 00ae DF01      		movw r26,r30
 2066               		0:
 2067 00b0 0D90      		ld __tmp_reg__,X+
 2068 00b2 0020      		tst __tmp_reg__
 2069 00b4 01F4      		brne 0b
 2070 00b6 1197      		sbiw r26,1
 2071 00b8 6D01      		movw r12,r26
 2072               	.LVL178:
 2073 00ba CE1A      		sub r12,r30
 2074 00bc DF0A      		sbc r13,r31
 2075               	.LVL179:
  60:./ros_lib/rosserial_msgs/TopicInfo.h ****       offset += 4;
 2076               		.loc 2 60 0
 2077 00be A601      		movw r20,r12
 2078 00c0 60E0      		ldi r22,0
 2079 00c2 70E0      		ldi r23,0
 2080 00c4 C801      		movw r24,r16
 2081 00c6 8C0F      		add r24,r28
 2082 00c8 9D1F      		adc r25,r29
 2083 00ca 0E94 0000 		call _ZN3ros3Msg8varToArrIPhmEEvT_T0_
 2084               	.LVL180:
  62:./ros_lib/rosserial_msgs/TopicInfo.h ****       offset += length_md5sum;
 2085               		.loc 2 62 0
 2086 00ce 2496      		adiw r28,4
 2087               	.LVL181:
 2088 00d0 F701      		movw r30,r14
 2089 00d2 6085      		ldd r22,Z+8
 2090 00d4 7185      		ldd r23,Z+9
 2091 00d6 A601      		movw r20,r12
 2092 00d8 C801      		movw r24,r16
 2093 00da 8C0F      		add r24,r28
 2094 00dc 9D1F      		adc r25,r29
 2095 00de 0E94 0000 		call memcpy
 2096               	.LVL182:
  63:./ros_lib/rosserial_msgs/TopicInfo.h ****       union {
 2097               		.loc 2 63 0
 2098 00e2 C601      		movw r24,r12
 2099 00e4 8C0F      		add r24,r28
 2100 00e6 9D1F      		adc r25,r29
 2101               	.LVL183:
  68:./ros_lib/rosserial_msgs/TopicInfo.h ****       *(outbuffer + offset + 0) = (u_buffer_size.base >> (8 * 0)) & 0xFF;
 2102               		.loc 2 68 0
 2103 00e8 D701      		movw r26,r14
 2104 00ea 1A96      		adiw r26,10
 2105 00ec 6C91      		ld r22,X
 2106 00ee 1A97      		sbiw r26,10
  69:./ros_lib/rosserial_msgs/TopicInfo.h ****       *(outbuffer + offset + 1) = (u_buffer_size.base >> (8 * 1)) & 0xFF;
 2107               		.loc 2 69 0
 2108 00f0 1B96      		adiw r26,11
 2109 00f2 4C91      		ld r20,X
 2110 00f4 1B97      		sbiw r26,11
 2111 00f6 1C96      		adiw r26,12
 2112 00f8 3C91      		ld r19,X
 2113 00fa 1C97      		sbiw r26,12
 2114 00fc 1D96      		adiw r26,13
 2115 00fe 2C91      		ld r18,X
 2116 0100 F801      		movw r30,r16
 2117 0102 E80F      		add r30,r24
 2118 0104 F91F      		adc r31,r25
 2119 0106 6083      		st Z,r22
  70:./ros_lib/rosserial_msgs/TopicInfo.h ****       *(outbuffer + offset + 2) = (u_buffer_size.base >> (8 * 2)) & 0xFF;
 2120               		.loc 2 70 0
 2121 0108 4183      		std Z+1,r20
  71:./ros_lib/rosserial_msgs/TopicInfo.h ****       *(outbuffer + offset + 3) = (u_buffer_size.base >> (8 * 3)) & 0xFF;
 2122               		.loc 2 71 0
 2123 010a 3283      		std Z+2,r19
  72:./ros_lib/rosserial_msgs/TopicInfo.h ****       offset += sizeof(this->buffer_size);
 2124               		.loc 2 72 0
 2125 010c 2383      		std Z+3,r18
 2126               	.LVL184:
  75:./ros_lib/rosserial_msgs/TopicInfo.h **** 
 2127               		.loc 2 75 0
 2128 010e 0496      		adiw r24,4
 2129               	.LVL185:
 2130               	/* epilogue start */
 2131 0110 DF91      		pop r29
 2132 0112 CF91      		pop r28
 2133 0114 1F91      		pop r17
 2134 0116 0F91      		pop r16
 2135               	.LVL186:
 2136 0118 FF90      		pop r15
 2137 011a EF90      		pop r14
 2138               	.LVL187:
 2139 011c DF90      		pop r13
 2140 011e CF90      		pop r12
 2141               	.LVL188:
 2142 0120 0895      		ret
 2143               		.cfi_endproc
 2144               	.LFE40:
 2146               		.section	.text._ZN3ros3Msg8arrToVarImPhEEvRT_T0_,"axG",@progbits,_ZN3ros3Msg8arrToVarImPhEEvRT_T0_
 2147               		.weak	_ZN3ros3Msg8arrToVarImPhEEvRT_T0_
 2149               	_ZN3ros3Msg8arrToVarImPhEEvRT_T0_:
 2150               	.LFB177:
 193:./ros_lib/ros/msg.h **** 
 194:./ros_lib/ros/msg.h ****   // Copy data from a byte array into variable
 195:./ros_lib/ros/msg.h ****   template<typename V, typename A>
 196:./ros_lib/ros/msg.h ****   static void arrToVar(V& var, const A arr)
 2151               		.loc 12 196 0
 2152               		.cfi_startproc
 2153               	.LVL189:
 2154 0000 CF92      		push r12
 2155               	.LCFI69:
 2156               		.cfi_def_cfa_offset 4
 2157               		.cfi_offset 12, -3
 2158 0002 DF92      		push r13
 2159               	.LCFI70:
 2160               		.cfi_def_cfa_offset 5
 2161               		.cfi_offset 13, -4
 2162 0004 EF92      		push r14
 2163               	.LCFI71:
 2164               		.cfi_def_cfa_offset 6
 2165               		.cfi_offset 14, -5
 2166 0006 FF92      		push r15
 2167               	.LCFI72:
 2168               		.cfi_def_cfa_offset 7
 2169               		.cfi_offset 15, -6
 2170               	/* prologue: function */
 2171               	/* frame size = 0 */
 2172               	/* stack size = 4 */
 2173               	.L__stack_usage = 4
 2174 0008 FC01      		movw r30,r24
 197:./ros_lib/ros/msg.h ****   {
 198:./ros_lib/ros/msg.h ****     var = 0;
 2175               		.loc 12 198 0
 2176 000a 1082      		st Z,__zero_reg__
 2177 000c 1182      		std Z+1,__zero_reg__
 2178 000e 1282      		std Z+2,__zero_reg__
 2179 0010 1382      		std Z+3,__zero_reg__
 2180               	.LVL190:
 2181 0012 DB01      		movw r26,r22
 2182 0014 20E0      		ldi r18,0
 2183 0016 30E0      		ldi r19,0
 2184               	.LVL191:
 2185               	.L53:
 2186               	.LBB122:
 199:./ros_lib/ros/msg.h ****     for (size_t i = 0; i < sizeof(V); i++)
 200:./ros_lib/ros/msg.h ****       var |= (arr[i] << (8 * i));
 2187               		.loc 12 200 0 discriminator 2
 2188 0018 4D91      		ld r20,X+
 2189               	.LVL192:
 2190 001a 50E0      		ldi r21,0
 2191 001c 022E      		mov r0,r18
 2192 001e 00C0      		rjmp 2f
 2193               		1:
 2194 0020 440F      		lsl r20
 2195 0022 551F      		rol r21
 2196               		2:
 2197 0024 0A94      		dec r0
 2198 0026 02F4      		brpl 1b
 2199 0028 052E      		mov __tmp_reg__,r21
 2200 002a 000C      		lsl r0
 2201 002c 660B      		sbc r22,r22
 2202 002e 770B      		sbc r23,r23
 2203 0030 C080      		ld r12,Z
 2204 0032 D180      		ldd r13,Z+1
 2205 0034 E280      		ldd r14,Z+2
 2206 0036 F380      		ldd r15,Z+3
 2207 0038 4C29      		or r20,r12
 2208 003a 5D29      		or r21,r13
 2209 003c 6E29      		or r22,r14
 2210 003e 7F29      		or r23,r15
 2211 0040 4083      		st Z,r20
 2212 0042 5183      		std Z+1,r21
 2213 0044 6283      		std Z+2,r22
 2214 0046 7383      		std Z+3,r23
 2215               	.LVL193:
 2216 0048 285F      		subi r18,-8
 2217 004a 3F4F      		sbci r19,-1
 199:./ros_lib/ros/msg.h ****     for (size_t i = 0; i < sizeof(V); i++)
 2218               		.loc 12 199 0 discriminator 2
 2219 004c 2032      		cpi r18,32
 2220 004e 3105      		cpc r19,__zero_reg__
 2221 0050 01F4      		brne .L53
 2222               	/* epilogue start */
 2223               	.LBE122:
 201:./ros_lib/ros/msg.h ****   }
 2224               		.loc 12 201 0
 2225 0052 FF90      		pop r15
 2226 0054 EF90      		pop r14
 2227 0056 DF90      		pop r13
 2228 0058 CF90      		pop r12
 2229 005a 0895      		ret
 2230               		.cfi_endproc
 2231               	.LFE177:
 2233               		.section	.text._ZN8std_msgs19MultiArrayDimension11deserializeEPh,"axG",@progbits,_ZN8std_msgs19Mul
 2234               		.weak	_ZN8std_msgs19MultiArrayDimension11deserializeEPh
 2236               	_ZN8std_msgs19MultiArrayDimension11deserializeEPh:
 2237               	.LFB150:
  50:./ros_lib/std_msgs/MultiArrayDimension.h ****     {
 2238               		.loc 5 50 0
 2239               		.cfi_startproc
 2240               	.LVL194:
 2241 0000 4F92      		push r4
 2242               	.LCFI73:
 2243               		.cfi_def_cfa_offset 4
 2244               		.cfi_offset 4, -3
 2245 0002 5F92      		push r5
 2246               	.LCFI74:
 2247               		.cfi_def_cfa_offset 5
 2248               		.cfi_offset 5, -4
 2249 0004 6F92      		push r6
 2250               	.LCFI75:
 2251               		.cfi_def_cfa_offset 6
 2252               		.cfi_offset 6, -5
 2253 0006 7F92      		push r7
 2254               	.LCFI76:
 2255               		.cfi_def_cfa_offset 7
 2256               		.cfi_offset 7, -6
 2257 0008 8F92      		push r8
 2258               	.LCFI77:
 2259               		.cfi_def_cfa_offset 8
 2260               		.cfi_offset 8, -7
 2261 000a 9F92      		push r9
 2262               	.LCFI78:
 2263               		.cfi_def_cfa_offset 9
 2264               		.cfi_offset 9, -8
 2265 000c AF92      		push r10
 2266               	.LCFI79:
 2267               		.cfi_def_cfa_offset 10
 2268               		.cfi_offset 10, -9
 2269 000e BF92      		push r11
 2270               	.LCFI80:
 2271               		.cfi_def_cfa_offset 11
 2272               		.cfi_offset 11, -10
 2273 0010 EF92      		push r14
 2274               	.LCFI81:
 2275               		.cfi_def_cfa_offset 12
 2276               		.cfi_offset 14, -11
 2277 0012 FF92      		push r15
 2278               	.LCFI82:
 2279               		.cfi_def_cfa_offset 13
 2280               		.cfi_offset 15, -12
 2281 0014 0F93      		push r16
 2282               	.LCFI83:
 2283               		.cfi_def_cfa_offset 14
 2284               		.cfi_offset 16, -13
 2285 0016 1F93      		push r17
 2286               	.LCFI84:
 2287               		.cfi_def_cfa_offset 15
 2288               		.cfi_offset 17, -14
 2289 0018 CF93      		push r28
 2290               	.LCFI85:
 2291               		.cfi_def_cfa_offset 16
 2292               		.cfi_offset 28, -15
 2293 001a DF93      		push r29
 2294               	.LCFI86:
 2295               		.cfi_def_cfa_offset 17
 2296               		.cfi_offset 29, -16
 2297 001c 00D0      		rcall .
 2298 001e 1F92      		push __zero_reg__
 2299               	.LCFI87:
 2300               		.cfi_def_cfa_offset 21
 2301 0020 CDB7      		in r28,__SP_L__
 2302 0022 DEB7      		in r29,__SP_H__
 2303               	.LCFI88:
 2304               		.cfi_def_cfa_register 28
 2305               	/* prologue: function */
 2306               	/* frame size = 4 */
 2307               	/* stack size = 18 */
 2308               	.L__stack_usage = 18
 2309 0024 8C01      		movw r16,r24
 2310 0026 7B01      		movw r14,r22
 2311               	.LVL195:
  54:./ros_lib/std_msgs/MultiArrayDimension.h ****       offset += 4;
 2312               		.loc 5 54 0
 2313 0028 CE01      		movw r24,r28
 2314               	.LVL196:
 2315 002a 0196      		adiw r24,1
 2316 002c 0E94 0000 		call _ZN3ros3Msg8arrToVarImPhEEvRT_T0_
 2317               	.LVL197:
 2318               	.LBB123:
  56:./ros_lib/std_msgs/MultiArrayDimension.h ****           inbuffer[k-1]=inbuffer[k];
 2319               		.loc 5 56 0
 2320 0030 8981      		ldd r24,Y+1
 2321 0032 9A81      		ldd r25,Y+2
 2322 0034 AB81      		ldd r26,Y+3
 2323 0036 BC81      		ldd r27,Y+4
 2324 0038 4C01      		movw r8,r24
 2325 003a 5D01      		movw r10,r26
 2326 003c 24E0      		ldi r18,4
 2327 003e 820E      		add r8,r18
 2328 0040 911C      		adc r9,__zero_reg__
 2329 0042 A11C      		adc r10,__zero_reg__
 2330 0044 B11C      		adc r11,__zero_reg__
 2331 0046 A701      		movw r20,r14
 2332 0048 4D5F      		subi r20,-3
 2333 004a 5F4F      		sbci r21,-1
 2334 004c FA01      		movw r30,r20
 2335 004e 24E0      		ldi r18,lo8(4)
 2336 0050 30E0      		ldi r19,0
 2337               	.LVL198:
 2338               	.L57:
  56:./ros_lib/std_msgs/MultiArrayDimension.h ****           inbuffer[k-1]=inbuffer[k];
 2339               		.loc 5 56 0 is_stmt 0 discriminator 3
 2340 0052 2901      		movw r4,r18
 2341 0054 612C      		mov r6,__zero_reg__
 2342 0056 712C      		mov r7,__zero_reg__
 2343 0058 4814      		cp r4,r8
 2344 005a 5904      		cpc r5,r9
 2345 005c 6A04      		cpc r6,r10
 2346 005e 7B04      		cpc r7,r11
 2347 0060 00F4      		brsh .L56
  57:./ros_lib/std_msgs/MultiArrayDimension.h ****       }
 2348               		.loc 5 57 0 is_stmt 1 discriminator 2
 2349 0062 6181      		ldd r22,Z+1
 2350 0064 6193      		st Z+,r22
  56:./ros_lib/std_msgs/MultiArrayDimension.h ****           inbuffer[k-1]=inbuffer[k];
 2351               		.loc 5 56 0 discriminator 2
 2352 0066 2F5F      		subi r18,-1
 2353 0068 3F4F      		sbci r19,-1
 2354               	.LVL199:
 2355 006a 00C0      		rjmp .L57
 2356               	.LVL200:
 2357               	.L56:
 2358               	.LBE123:
  59:./ros_lib/std_msgs/MultiArrayDimension.h ****       this->label = (char *)(inbuffer + offset-1);
 2359               		.loc 5 59 0
 2360 006c E80E      		add r14,r24
 2361 006e F91E      		adc r15,r25
 2362               	.LVL201:
 2363 0070 F701      		movw r30,r14
 2364 0072 1382      		std Z+3,__zero_reg__
  60:./ros_lib/std_msgs/MultiArrayDimension.h ****       offset += length_label;
 2365               		.loc 5 60 0
 2366 0074 F801      		movw r30,r16
 2367 0076 5383      		std Z+3,r21
 2368 0078 4283      		std Z+2,r20
 2369               	.LVL202:
  62:./ros_lib/std_msgs/MultiArrayDimension.h ****       this->size |= ((uint32_t) (*(inbuffer + offset + 1))) << (8 * 1);
 2370               		.loc 5 62 0
 2371 007a F701      		movw r30,r14
 2372 007c 4481      		ldd r20,Z+4
 2373               	.LVL203:
 2374 007e 50E0      		ldi r21,0
 2375 0080 60E0      		ldi r22,0
 2376 0082 70E0      		ldi r23,0
 2377 0084 F801      		movw r30,r16
 2378 0086 4483      		std Z+4,r20
 2379 0088 5583      		std Z+5,r21
 2380 008a 6683      		std Z+6,r22
 2381 008c 7783      		std Z+7,r23
  63:./ros_lib/std_msgs/MultiArrayDimension.h ****       this->size |= ((uint32_t) (*(inbuffer + offset + 2))) << (8 * 2);
 2382               		.loc 5 63 0
 2383 008e F701      		movw r30,r14
 2384 0090 2581      		ldd r18,Z+5
 2385 0092 522B      		or r21,r18
 2386 0094 F801      		movw r30,r16
 2387 0096 4483      		std Z+4,r20
 2388 0098 5583      		std Z+5,r21
 2389 009a 6683      		std Z+6,r22
 2390 009c 7783      		std Z+7,r23
  64:./ros_lib/std_msgs/MultiArrayDimension.h ****       this->size |= ((uint32_t) (*(inbuffer + offset + 3))) << (8 * 3);
 2391               		.loc 5 64 0
 2392 009e F701      		movw r30,r14
 2393 00a0 2681      		ldd r18,Z+6
 2394 00a2 622B      		or r22,r18
 2395 00a4 F801      		movw r30,r16
 2396 00a6 4483      		std Z+4,r20
 2397 00a8 5583      		std Z+5,r21
 2398 00aa 6683      		std Z+6,r22
 2399 00ac 7783      		std Z+7,r23
  65:./ros_lib/std_msgs/MultiArrayDimension.h ****       offset += sizeof(this->size);
 2400               		.loc 5 65 0
 2401 00ae F701      		movw r30,r14
 2402 00b0 2781      		ldd r18,Z+7
 2403 00b2 722B      		or r23,r18
 2404 00b4 F801      		movw r30,r16
 2405 00b6 4483      		std Z+4,r20
 2406 00b8 5583      		std Z+5,r21
 2407 00ba 6683      		std Z+6,r22
 2408 00bc 7783      		std Z+7,r23
 2409               	.LVL204:
  67:./ros_lib/std_msgs/MultiArrayDimension.h ****       this->stride |= ((uint32_t) (*(inbuffer + offset + 1))) << (8 * 1);
 2410               		.loc 5 67 0
 2411 00be F701      		movw r30,r14
 2412 00c0 4085      		ldd r20,Z+8
 2413 00c2 50E0      		ldi r21,0
 2414 00c4 60E0      		ldi r22,0
 2415 00c6 70E0      		ldi r23,0
 2416 00c8 F801      		movw r30,r16
 2417 00ca 4087      		std Z+8,r20
 2418 00cc 5187      		std Z+9,r21
 2419 00ce 6287      		std Z+10,r22
 2420 00d0 7387      		std Z+11,r23
  68:./ros_lib/std_msgs/MultiArrayDimension.h ****       this->stride |= ((uint32_t) (*(inbuffer + offset + 2))) << (8 * 2);
 2421               		.loc 5 68 0
 2422 00d2 F701      		movw r30,r14
 2423 00d4 2185      		ldd r18,Z+9
 2424 00d6 522B      		or r21,r18
 2425 00d8 F801      		movw r30,r16
 2426 00da 4087      		std Z+8,r20
 2427 00dc 5187      		std Z+9,r21
 2428 00de 6287      		std Z+10,r22
 2429 00e0 7387      		std Z+11,r23
  69:./ros_lib/std_msgs/MultiArrayDimension.h ****       this->stride |= ((uint32_t) (*(inbuffer + offset + 3))) << (8 * 3);
 2430               		.loc 5 69 0
 2431 00e2 F701      		movw r30,r14
 2432 00e4 2285      		ldd r18,Z+10
 2433 00e6 622B      		or r22,r18
 2434 00e8 F801      		movw r30,r16
 2435 00ea 4087      		std Z+8,r20
 2436 00ec 5187      		std Z+9,r21
 2437 00ee 6287      		std Z+10,r22
 2438 00f0 7387      		std Z+11,r23
  70:./ros_lib/std_msgs/MultiArrayDimension.h ****       offset += sizeof(this->stride);
 2439               		.loc 5 70 0
 2440 00f2 F701      		movw r30,r14
 2441 00f4 2385      		ldd r18,Z+11
 2442 00f6 722B      		or r23,r18
 2443 00f8 F801      		movw r30,r16
 2444 00fa 4087      		std Z+8,r20
 2445 00fc 5187      		std Z+9,r21
 2446 00fe 6287      		std Z+10,r22
 2447 0100 7387      		std Z+11,r23
 2448               	.LVL205:
  73:./ros_lib/std_msgs/MultiArrayDimension.h **** 
 2449               		.loc 5 73 0
 2450 0102 0C96      		adiw r24,12
 2451               	.LVL206:
 2452               	/* epilogue start */
 2453 0104 0F90      		pop __tmp_reg__
 2454 0106 0F90      		pop __tmp_reg__
 2455 0108 0F90      		pop __tmp_reg__
 2456 010a 0F90      		pop __tmp_reg__
 2457 010c DF91      		pop r29
 2458 010e CF91      		pop r28
 2459               	.LVL207:
 2460 0110 1F91      		pop r17
 2461               	.LVL208:
 2462 0112 0F91      		pop r16
 2463               	.LVL209:
 2464 0114 FF90      		pop r15
 2465               	.LVL210:
 2466 0116 EF90      		pop r14
 2467               	.LVL211:
 2468 0118 BF90      		pop r11
 2469               	.LVL212:
 2470 011a AF90      		pop r10
 2471               	.LVL213:
 2472 011c 9F90      		pop r9
 2473               	.LVL214:
 2474 011e 8F90      		pop r8
 2475               	.LVL215:
 2476 0120 7F90      		pop r7
 2477               	.LVL216:
 2478 0122 6F90      		pop r6
 2479               	.LVL217:
 2480 0124 5F90      		pop r5
 2481               	.LVL218:
 2482 0126 4F90      		pop r4
 2483               	.LVL219:
 2484 0128 0895      		ret
 2485               		.cfi_endproc
 2486               	.LFE150:
 2488               		.section	.text._ZN8std_msgs16MultiArrayLayout11deserializeEPh,"axG",@progbits,_ZN8std_msgs16MultiA
 2489               		.weak	_ZN8std_msgs16MultiArrayLayout11deserializeEPh
 2491               	_ZN8std_msgs16MultiArrayLayout11deserializeEPh:
 2492               	.LFB157:
  48:./ros_lib/std_msgs/MultiArrayLayout.h ****     {
 2493               		.loc 6 48 0
 2494               		.cfi_startproc
 2495               	.LVL220:
 2496 0000 4F92      		push r4
 2497               	.LCFI89:
 2498               		.cfi_def_cfa_offset 4
 2499               		.cfi_offset 4, -3
 2500 0002 5F92      		push r5
 2501               	.LCFI90:
 2502               		.cfi_def_cfa_offset 5
 2503               		.cfi_offset 5, -4
 2504 0004 6F92      		push r6
 2505               	.LCFI91:
 2506               		.cfi_def_cfa_offset 6
 2507               		.cfi_offset 6, -5
 2508 0006 7F92      		push r7
 2509               	.LCFI92:
 2510               		.cfi_def_cfa_offset 7
 2511               		.cfi_offset 7, -6
 2512 0008 AF92      		push r10
 2513               	.LCFI93:
 2514               		.cfi_def_cfa_offset 8
 2515               		.cfi_offset 10, -7
 2516 000a BF92      		push r11
 2517               	.LCFI94:
 2518               		.cfi_def_cfa_offset 9
 2519               		.cfi_offset 11, -8
 2520 000c CF92      		push r12
 2521               	.LCFI95:
 2522               		.cfi_def_cfa_offset 10
 2523               		.cfi_offset 12, -9
 2524 000e DF92      		push r13
 2525               	.LCFI96:
 2526               		.cfi_def_cfa_offset 11
 2527               		.cfi_offset 13, -10
 2528 0010 EF92      		push r14
 2529               	.LCFI97:
 2530               		.cfi_def_cfa_offset 12
 2531               		.cfi_offset 14, -11
 2532 0012 FF92      		push r15
 2533               	.LCFI98:
 2534               		.cfi_def_cfa_offset 13
 2535               		.cfi_offset 15, -12
 2536 0014 0F93      		push r16
 2537               	.LCFI99:
 2538               		.cfi_def_cfa_offset 14
 2539               		.cfi_offset 16, -13
 2540 0016 1F93      		push r17
 2541               	.LCFI100:
 2542               		.cfi_def_cfa_offset 15
 2543               		.cfi_offset 17, -14
 2544 0018 CF93      		push r28
 2545               	.LCFI101:
 2546               		.cfi_def_cfa_offset 16
 2547               		.cfi_offset 28, -15
 2548 001a DF93      		push r29
 2549               	.LCFI102:
 2550               		.cfi_def_cfa_offset 17
 2551               		.cfi_offset 29, -16
 2552               	/* prologue: function */
 2553               	/* frame size = 0 */
 2554               	/* stack size = 14 */
 2555               	.L__stack_usage = 14
 2556 001c EC01      		movw r28,r24
 2557 001e 5B01      		movw r10,r22
 2558               	.LVL221:
  54:./ros_lib/std_msgs/MultiArrayLayout.h ****       offset += sizeof(this->dim_length);
 2559               		.loc 6 54 0
 2560 0020 FB01      		movw r30,r22
 2561 0022 C080      		ld r12,Z
 2562 0024 D180      		ldd r13,Z+1
 2563 0026 E280      		ldd r14,Z+2
 2564 0028 F380      		ldd r15,Z+3
 2565               	.LVL222:
  56:./ros_lib/std_msgs/MultiArrayLayout.h ****         this->dim = (std_msgs::MultiArrayDimension*)realloc(this->dim, dim_lengthT * sizeof(std_msg
 2566               		.loc 6 56 0
 2567 002a 8A81      		ldd r24,Y+2
 2568 002c 9B81      		ldd r25,Y+3
 2569 002e AC81      		ldd r26,Y+4
 2570 0030 BD81      		ldd r27,Y+5
 2571               	.LVL223:
 2572 0032 8C15      		cp r24,r12
 2573 0034 9D05      		cpc r25,r13
 2574 0036 AE05      		cpc r26,r14
 2575 0038 BF05      		cpc r27,r15
 2576 003a 00F4      		brsh .L59
  57:./ros_lib/std_msgs/MultiArrayLayout.h ****       dim_length = dim_lengthT;
 2577               		.loc 6 57 0
 2578 003c 8CE0      		ldi r24,lo8(12)
 2579 003e 8C9D      		mul r24,r12
 2580 0040 B001      		movw r22,r0
 2581 0042 8D9D      		mul r24,r13
 2582 0044 700D      		add r23,r0
 2583 0046 1124      		clr __zero_reg__
 2584               	.LVL224:
 2585 0048 8A89      		ldd r24,Y+18
 2586 004a 9B89      		ldd r25,Y+19
 2587 004c 0E94 0000 		call realloc
 2588               	.LVL225:
 2589 0050 9B8B      		std Y+19,r25
 2590 0052 8A8B      		std Y+18,r24
 2591               	.L59:
  58:./ros_lib/std_msgs/MultiArrayLayout.h ****       for( uint32_t i = 0; i < dim_length; i++){
 2592               		.loc 6 58 0
 2593 0054 CA82      		std Y+2,r12
 2594 0056 DB82      		std Y+3,r13
 2595 0058 EC82      		std Y+4,r14
 2596 005a FD82      		std Y+5,r15
 2597               	.LVL226:
 2598 005c E12C      		mov r14,__zero_reg__
 2599 005e F12C      		mov r15,__zero_reg__
 2600               	.LBB124:
  59:./ros_lib/std_msgs/MultiArrayLayout.h ****       offset += this->st_dim.deserialize(inbuffer + offset);
 2601               		.loc 6 59 0
 2602 0060 412C      		mov r4,__zero_reg__
 2603 0062 512C      		mov r5,__zero_reg__
 2604 0064 3201      		movw r6,r4
 2605               	.LBE124:
  55:./ros_lib/std_msgs/MultiArrayLayout.h ****       if(dim_lengthT > dim_length)
 2606               		.loc 6 55 0
 2607 0066 04E0      		ldi r16,lo8(4)
 2608 0068 10E0      		ldi r17,0
 2609               	.LBB125:
  60:./ros_lib/std_msgs/MultiArrayLayout.h ****         memcpy( &(this->dim[i]), &(this->st_dim), sizeof(std_msgs::MultiArrayDimension));
 2610               		.loc 6 60 0
 2611 006a 6E01      		movw r12,r28
 2612 006c F6E0      		ldi r31,6
 2613 006e CF0E      		add r12,r31
 2614 0070 D11C      		adc r13,__zero_reg__
 2615               	.LVL227:
 2616               	.L61:
  59:./ros_lib/std_msgs/MultiArrayLayout.h ****       offset += this->st_dim.deserialize(inbuffer + offset);
 2617               		.loc 6 59 0 discriminator 3
 2618 0072 8A81      		ldd r24,Y+2
 2619 0074 9B81      		ldd r25,Y+3
 2620 0076 AC81      		ldd r26,Y+4
 2621 0078 BD81      		ldd r27,Y+5
 2622 007a F501      		movw r30,r10
 2623 007c E00F      		add r30,r16
 2624 007e F11F      		adc r31,r17
 2625 0080 4816      		cp r4,r24
 2626 0082 5906      		cpc r5,r25
 2627 0084 6A06      		cpc r6,r26
 2628 0086 7B06      		cpc r7,r27
 2629 0088 00F4      		brsh .L60
  60:./ros_lib/std_msgs/MultiArrayLayout.h ****         memcpy( &(this->dim[i]), &(this->st_dim), sizeof(std_msgs::MultiArrayDimension));
 2630               		.loc 6 60 0 discriminator 2
 2631 008a BF01      		movw r22,r30
 2632 008c C601      		movw r24,r12
 2633 008e 0E94 0000 		call _ZN8std_msgs19MultiArrayDimension11deserializeEPh
 2634               	.LVL228:
 2635 0092 080F      		add r16,r24
 2636 0094 191F      		adc r17,r25
 2637               	.LVL229:
  61:./ros_lib/std_msgs/MultiArrayLayout.h ****       }
 2638               		.loc 6 61 0 discriminator 2
 2639 0096 AA89      		ldd r26,Y+18
 2640 0098 BB89      		ldd r27,Y+19
 2641 009a AE0D      		add r26,r14
 2642 009c BF1D      		adc r27,r15
 2643 009e 8CE0      		ldi r24,lo8(12)
 2644 00a0 F601      		movw r30,r12
 2645               		0:
 2646 00a2 0190      		ld r0,Z+
 2647 00a4 0D92      		st X+,r0
 2648 00a6 8A95      		dec r24
 2649 00a8 01F4      		brne 0b
  59:./ros_lib/std_msgs/MultiArrayLayout.h ****       offset += this->st_dim.deserialize(inbuffer + offset);
 2650               		.loc 6 59 0 discriminator 2
 2651 00aa 8FEF      		ldi r24,-1
 2652 00ac 481A      		sub r4,r24
 2653 00ae 580A      		sbc r5,r24
 2654 00b0 680A      		sbc r6,r24
 2655 00b2 780A      		sbc r7,r24
 2656               	.LVL230:
 2657 00b4 ECE0      		ldi r30,12
 2658 00b6 EE0E      		add r14,r30
 2659 00b8 F11C      		adc r15,__zero_reg__
 2660 00ba 00C0      		rjmp .L61
 2661               	.L60:
 2662               	.LBE125:
  63:./ros_lib/std_msgs/MultiArrayLayout.h ****       this->data_offset |= ((uint32_t) (*(inbuffer + offset + 1))) << (8 * 1);
 2663               		.loc 6 63 0
 2664 00bc 8081      		ld r24,Z
 2665 00be 90E0      		ldi r25,0
 2666 00c0 A0E0      		ldi r26,0
 2667 00c2 B0E0      		ldi r27,0
 2668 00c4 8C8B      		std Y+20,r24
 2669 00c6 9D8B      		std Y+21,r25
 2670 00c8 AE8B      		std Y+22,r26
 2671 00ca BF8B      		std Y+23,r27
  64:./ros_lib/std_msgs/MultiArrayLayout.h ****       this->data_offset |= ((uint32_t) (*(inbuffer + offset + 2))) << (8 * 2);
 2672               		.loc 6 64 0
 2673 00cc 2181      		ldd r18,Z+1
 2674 00ce 922B      		or r25,r18
 2675 00d0 8C8B      		std Y+20,r24
 2676 00d2 9D8B      		std Y+21,r25
 2677 00d4 AE8B      		std Y+22,r26
 2678 00d6 BF8B      		std Y+23,r27
  65:./ros_lib/std_msgs/MultiArrayLayout.h ****       this->data_offset |= ((uint32_t) (*(inbuffer + offset + 3))) << (8 * 3);
 2679               		.loc 6 65 0
 2680 00d8 2281      		ldd r18,Z+2
 2681 00da A22B      		or r26,r18
 2682 00dc 8C8B      		std Y+20,r24
 2683 00de 9D8B      		std Y+21,r25
 2684 00e0 AE8B      		std Y+22,r26
 2685 00e2 BF8B      		std Y+23,r27
  66:./ros_lib/std_msgs/MultiArrayLayout.h ****       offset += sizeof(this->data_offset);
 2686               		.loc 6 66 0
 2687 00e4 2381      		ldd r18,Z+3
 2688 00e6 B22B      		or r27,r18
 2689 00e8 8C8B      		std Y+20,r24
 2690 00ea 9D8B      		std Y+21,r25
 2691 00ec AE8B      		std Y+22,r26
 2692 00ee BF8B      		std Y+23,r27
 2693               	.LVL231:
  69:./ros_lib/std_msgs/MultiArrayLayout.h **** 
 2694               		.loc 6 69 0
 2695 00f0 C801      		movw r24,r16
 2696 00f2 0496      		adiw r24,4
 2697               	.LVL232:
 2698               	/* epilogue start */
 2699 00f4 DF91      		pop r29
 2700 00f6 CF91      		pop r28
 2701               	.LVL233:
 2702 00f8 1F91      		pop r17
 2703 00fa 0F91      		pop r16
 2704 00fc FF90      		pop r15
 2705 00fe EF90      		pop r14
 2706 0100 DF90      		pop r13
 2707 0102 CF90      		pop r12
 2708               	.LVL234:
 2709 0104 BF90      		pop r11
 2710 0106 AF90      		pop r10
 2711               	.LVL235:
 2712 0108 7F90      		pop r7
 2713 010a 6F90      		pop r6
 2714 010c 5F90      		pop r5
 2715 010e 4F90      		pop r4
 2716               	.LVL236:
 2717 0110 0895      		ret
 2718               		.cfi_endproc
 2719               	.LFE157:
 2721               		.section	.text._ZN8std_msgs17Float32MultiArray11deserializeEPh,"axG",@progbits,_ZN8std_msgs17Float
 2722               		.weak	_ZN8std_msgs17Float32MultiArray11deserializeEPh
 2724               	_ZN8std_msgs17Float32MultiArray11deserializeEPh:
 2725               	.LFB164:
  53:./ros_lib/std_msgs/Float32MultiArray.h ****     {
 2726               		.loc 7 53 0
 2727               		.cfi_startproc
 2728               	.LVL237:
 2729 0000 AF92      		push r10
 2730               	.LCFI103:
 2731               		.cfi_def_cfa_offset 4
 2732               		.cfi_offset 10, -3
 2733 0002 BF92      		push r11
 2734               	.LCFI104:
 2735               		.cfi_def_cfa_offset 5
 2736               		.cfi_offset 11, -4
 2737 0004 CF92      		push r12
 2738               	.LCFI105:
 2739               		.cfi_def_cfa_offset 6
 2740               		.cfi_offset 12, -5
 2741 0006 DF92      		push r13
 2742               	.LCFI106:
 2743               		.cfi_def_cfa_offset 7
 2744               		.cfi_offset 13, -6
 2745 0008 EF92      		push r14
 2746               	.LCFI107:
 2747               		.cfi_def_cfa_offset 8
 2748               		.cfi_offset 14, -7
 2749 000a FF92      		push r15
 2750               	.LCFI108:
 2751               		.cfi_def_cfa_offset 9
 2752               		.cfi_offset 15, -8
 2753 000c 0F93      		push r16
 2754               	.LCFI109:
 2755               		.cfi_def_cfa_offset 10
 2756               		.cfi_offset 16, -9
 2757 000e 1F93      		push r17
 2758               	.LCFI110:
 2759               		.cfi_def_cfa_offset 11
 2760               		.cfi_offset 17, -10
 2761 0010 CF93      		push r28
 2762               	.LCFI111:
 2763               		.cfi_def_cfa_offset 12
 2764               		.cfi_offset 28, -11
 2765 0012 DF93      		push r29
 2766               	.LCFI112:
 2767               		.cfi_def_cfa_offset 13
 2768               		.cfi_offset 29, -12
 2769               	/* prologue: function */
 2770               	/* frame size = 0 */
 2771               	/* stack size = 10 */
 2772               	.L__stack_usage = 10
 2773 0014 EC01      		movw r28,r24
 2774 0016 8B01      		movw r16,r22
 2775               	.LVL238:
  56:./ros_lib/std_msgs/Float32MultiArray.h ****       uint32_t data_lengthT = ((uint32_t) (*(inbuffer + offset))); 
 2776               		.loc 7 56 0
 2777 0018 0296      		adiw r24,2
 2778               	.LVL239:
 2779 001a 0E94 0000 		call _ZN8std_msgs16MultiArrayLayout11deserializeEPh
 2780               	.LVL240:
  57:./ros_lib/std_msgs/Float32MultiArray.h ****       data_lengthT |= ((uint32_t) (*(inbuffer + offset + 1))) << (8 * 1); 
 2781               		.loc 7 57 0
 2782 001e 080F      		add r16,r24
 2783 0020 191F      		adc r17,r25
 2784               	.LVL241:
 2785 0022 F801      		movw r30,r16
 2786 0024 2081      		ld r18,Z
 2787               	.LVL242:
  59:./ros_lib/std_msgs/Float32MultiArray.h ****       data_lengthT |= ((uint32_t) (*(inbuffer + offset + 3))) << (8 * 3); 
 2788               		.loc 7 59 0
 2789 0026 3181      		ldd r19,Z+1
 2790 0028 C280      		ldd r12,Z+2
 2791 002a D12C      		mov r13,__zero_reg__
 2792 002c E12C      		mov r14,__zero_reg__
 2793 002e F12C      		mov r15,__zero_reg__
 2794 0030 7601      		movw r14,r12
 2795 0032 DD24      		clr r13
 2796 0034 CC24      		clr r12
 2797 0036 D32A      		or r13,r19
 2798 0038 C22A      		or r12,r18
 2799               	.LVL243:
  60:./ros_lib/std_msgs/Float32MultiArray.h ****       offset += sizeof(this->data_length);
 2800               		.loc 7 60 0
 2801 003a 2381      		ldd r18,Z+3
 2802 003c F22A      		or r15,r18
  61:./ros_lib/std_msgs/Float32MultiArray.h ****       if(data_lengthT > data_length)
 2803               		.loc 7 61 0
 2804 003e 5C01      		movw r10,r24
 2805 0040 F4E0      		ldi r31,4
 2806 0042 AF0E      		add r10,r31
 2807 0044 B11C      		adc r11,__zero_reg__
 2808               	.LVL244:
  62:./ros_lib/std_msgs/Float32MultiArray.h ****         this->data = (float*)realloc(this->data, data_lengthT * sizeof(float));
 2809               		.loc 7 62 0
 2810 0046 8A8D      		ldd r24,Y+26
 2811 0048 9B8D      		ldd r25,Y+27
 2812 004a AC8D      		ldd r26,Y+28
 2813 004c BD8D      		ldd r27,Y+29
 2814 004e 8C15      		cp r24,r12
 2815 0050 9D05      		cpc r25,r13
 2816 0052 AE05      		cpc r26,r14
 2817 0054 BF05      		cpc r27,r15
 2818 0056 00F4      		brsh .L63
  63:./ros_lib/std_msgs/Float32MultiArray.h ****       data_length = data_lengthT;
 2819               		.loc 7 63 0
 2820 0058 B601      		movw r22,r12
 2821 005a 660F      		lsl r22
 2822 005c 771F      		rol r23
 2823 005e 660F      		lsl r22
 2824 0060 771F      		rol r23
 2825 0062 8AA1      		ldd r24,Y+34
 2826 0064 9BA1      		ldd r25,Y+35
 2827 0066 0E94 0000 		call realloc
 2828               	.LVL245:
 2829 006a 9BA3      		std Y+35,r25
 2830 006c 8AA3      		std Y+34,r24
 2831               	.L63:
  64:./ros_lib/std_msgs/Float32MultiArray.h ****       for( uint32_t i = 0; i < data_length; i++){
 2832               		.loc 7 64 0
 2833 006e CA8E      		std Y+26,r12
 2834 0070 DB8E      		std Y+27,r13
 2835 0072 EC8E      		std Y+28,r14
 2836 0074 FD8E      		std Y+29,r15
 2837               	.LVL246:
 2838 0076 9801      		movw r18,r16
 2839               	.LBB126:
  65:./ros_lib/std_msgs/Float32MultiArray.h ****       union {
 2840               		.loc 7 65 0
 2841 0078 C12C      		mov r12,__zero_reg__
 2842 007a D12C      		mov r13,__zero_reg__
 2843 007c 7601      		movw r14,r12
 2844               	.LVL247:
 2845               	.LBB127:
  77:./ros_lib/std_msgs/Float32MultiArray.h ****       }
 2846               		.loc 7 77 0
 2847 007e AE01      		movw r20,r28
 2848 0080 425E      		subi r20,-30
 2849 0082 5F4F      		sbci r21,-1
 2850               	.LVL248:
 2851               	.L65:
 2852               	.LBE127:
  65:./ros_lib/std_msgs/Float32MultiArray.h ****       union {
 2853               		.loc 7 65 0 discriminator 3
 2854 0084 8A8D      		ldd r24,Y+26
 2855 0086 9B8D      		ldd r25,Y+27
 2856 0088 AC8D      		ldd r26,Y+28
 2857 008a BD8D      		ldd r27,Y+29
 2858 008c C816      		cp r12,r24
 2859 008e D906      		cpc r13,r25
 2860 0090 EA06      		cpc r14,r26
 2861 0092 FB06      		cpc r15,r27
 2862 0094 00F4      		brsh .L64
 2863               	.LVL249:
 2864               	.LBB128:
  74:./ros_lib/std_msgs/Float32MultiArray.h ****       this->st_data = u_st_data.real;
 2865               		.loc 7 74 0 discriminator 2
 2866 0096 F901      		movw r30,r18
 2867 0098 6581      		ldd r22,Z+5
 2868 009a 8681      		ldd r24,Z+6
 2869 009c 90E0      		ldi r25,0
 2870 009e A0E0      		ldi r26,0
 2871 00a0 B0E0      		ldi r27,0
 2872 00a2 DC01      		movw r26,r24
 2873 00a4 9927      		clr r25
 2874 00a6 8827      		clr r24
 2875 00a8 962B      		or r25,r22
 2876 00aa 6481      		ldd r22,Z+4
 2877 00ac 862B      		or r24,r22
 2878 00ae 6781      		ldd r22,Z+7
 2879 00b0 B62B      		or r27,r22
  75:./ros_lib/std_msgs/Float32MultiArray.h ****       offset += sizeof(this->st_data);
 2880               		.loc 7 75 0 discriminator 2
 2881 00b2 8E8F      		std Y+30,r24
 2882 00b4 9F8F      		std Y+31,r25
 2883 00b6 A8A3      		std Y+32,r26
 2884 00b8 B9A3      		std Y+33,r27
 2885               	.LVL250:
 2886 00ba F4E0      		ldi r31,4
 2887 00bc AF0E      		add r10,r31
 2888 00be B11C      		adc r11,__zero_reg__
 2889               	.LVL251:
  77:./ros_lib/std_msgs/Float32MultiArray.h ****       }
 2890               		.loc 7 77 0 discriminator 2
 2891 00c0 C901      		movw r24,r18
 2892 00c2 801B      		sub r24,r16
 2893 00c4 910B      		sbc r25,r17
 2894 00c6 AAA1      		ldd r26,Y+34
 2895 00c8 BBA1      		ldd r27,Y+35
 2896 00ca A80F      		add r26,r24
 2897 00cc B91F      		adc r27,r25
 2898 00ce 84E0      		ldi r24,lo8(4)
 2899 00d0 FA01      		movw r30,r20
 2900               		0:
 2901 00d2 0190      		ld r0,Z+
 2902 00d4 0D92      		st X+,r0
 2903 00d6 8A95      		dec r24
 2904 00d8 01F4      		brne 0b
 2905               	.LBE128:
  65:./ros_lib/std_msgs/Float32MultiArray.h ****       union {
 2906               		.loc 7 65 0 discriminator 2
 2907 00da 8FEF      		ldi r24,-1
 2908 00dc C81A      		sub r12,r24
 2909 00de D80A      		sbc r13,r24
 2910 00e0 E80A      		sbc r14,r24
 2911 00e2 F80A      		sbc r15,r24
 2912               	.LVL252:
 2913 00e4 2C5F      		subi r18,-4
 2914 00e6 3F4F      		sbci r19,-1
 2915 00e8 00C0      		rjmp .L65
 2916               	.L64:
 2917               	.LBE126:
  80:./ros_lib/std_msgs/Float32MultiArray.h **** 
 2918               		.loc 7 80 0
 2919 00ea C501      		movw r24,r10
 2920               	/* epilogue start */
 2921 00ec DF91      		pop r29
 2922 00ee CF91      		pop r28
 2923               	.LVL253:
 2924 00f0 1F91      		pop r17
 2925 00f2 0F91      		pop r16
 2926 00f4 FF90      		pop r15
 2927 00f6 EF90      		pop r14
 2928 00f8 DF90      		pop r13
 2929 00fa CF90      		pop r12
 2930               	.LVL254:
 2931 00fc BF90      		pop r11
 2932 00fe AF90      		pop r10
 2933               	.LVL255:
 2934 0100 0895      		ret
 2935               		.cfi_endproc
 2936               	.LFE164:
 2938               		.section	.text._ZN3ros10SubscriberIN8std_msgs17Float32MultiArrayEvE8callbackEPh,"axG",@progbits,_Z
 2939               		.weak	_ZN3ros10SubscriberIN8std_msgs17Float32MultiArrayEvE8callbackEPh
 2941               	_ZN3ros10SubscriberIN8std_msgs17Float32MultiArrayEvE8callbackEPh:
 2942               	.LFB195:
 114:./ros_lib/ros/subscriber.h ****   {
 2943               		.loc 8 114 0
 2944               		.cfi_startproc
 2945               	.LVL256:
 2946 0000 0F93      		push r16
 2947               	.LCFI113:
 2948               		.cfi_def_cfa_offset 4
 2949               		.cfi_offset 16, -3
 2950 0002 1F93      		push r17
 2951               	.LCFI114:
 2952               		.cfi_def_cfa_offset 5
 2953               		.cfi_offset 17, -4
 2954 0004 CF93      		push r28
 2955               	.LCFI115:
 2956               		.cfi_def_cfa_offset 6
 2957               		.cfi_offset 28, -5
 2958 0006 DF93      		push r29
 2959               	.LCFI116:
 2960               		.cfi_def_cfa_offset 7
 2961               		.cfi_offset 29, -6
 2962               	/* prologue: function */
 2963               	/* frame size = 0 */
 2964               	/* stack size = 4 */
 2965               	.L__stack_usage = 4
 2966 0008 8C01      		movw r16,r24
 116:./ros_lib/ros/subscriber.h ****     this->cb_(msg);
 2967               		.loc 8 116 0
 2968 000a EC01      		movw r28,r24
 2969 000c 2696      		adiw r28,6
 2970 000e CE01      		movw r24,r28
 2971               	.LVL257:
 2972 0010 0E94 0000 		call _ZN8std_msgs17Float32MultiArray11deserializeEPh
 2973               	.LVL258:
 117:./ros_lib/ros/subscriber.h ****   }
 2974               		.loc 8 117 0
 2975 0014 D801      		movw r26,r16
 2976 0016 9A96      		adiw r26,42
 2977 0018 ED91      		ld r30,X+
 2978 001a FC91      		ld r31,X
 2979 001c 9B97      		sbiw r26,42+1
 2980 001e CE01      		movw r24,r28
 2981               	/* epilogue start */
 118:./ros_lib/ros/subscriber.h **** 
 2982               		.loc 8 118 0
 2983 0020 DF91      		pop r29
 2984 0022 CF91      		pop r28
 2985 0024 1F91      		pop r17
 2986 0026 0F91      		pop r16
 2987               	.LVL259:
 117:./ros_lib/ros/subscriber.h ****   }
 2988               		.loc 8 117 0
 2989 0028 1994      		eijmp
 2990               	.LVL260:
 2991               		.cfi_endproc
 2992               	.LFE195:
 2994               		.section	.text._ZN14rosserial_msgs3Log11deserializeEPh,"axG",@progbits,_ZN14rosserial_msgs3Log11de
 2995               		.weak	_ZN14rosserial_msgs3Log11deserializeEPh
 2997               	_ZN14rosserial_msgs3Log11deserializeEPh:
 2998               	.LFB48:
  44:./ros_lib/rosserial_msgs/Log.h ****     {
 2999               		.loc 3 44 0
 3000               		.cfi_startproc
 3001               	.LVL261:
 3002 0000 4F92      		push r4
 3003               	.LCFI117:
 3004               		.cfi_def_cfa_offset 4
 3005               		.cfi_offset 4, -3
 3006 0002 5F92      		push r5
 3007               	.LCFI118:
 3008               		.cfi_def_cfa_offset 5
 3009               		.cfi_offset 5, -4
 3010 0004 6F92      		push r6
 3011               	.LCFI119:
 3012               		.cfi_def_cfa_offset 6
 3013               		.cfi_offset 6, -5
 3014 0006 7F92      		push r7
 3015               	.LCFI120:
 3016               		.cfi_def_cfa_offset 7
 3017               		.cfi_offset 7, -6
 3018 0008 8F92      		push r8
 3019               	.LCFI121:
 3020               		.cfi_def_cfa_offset 8
 3021               		.cfi_offset 8, -7
 3022 000a 9F92      		push r9
 3023               	.LCFI122:
 3024               		.cfi_def_cfa_offset 9
 3025               		.cfi_offset 9, -8
 3026 000c AF92      		push r10
 3027               	.LCFI123:
 3028               		.cfi_def_cfa_offset 10
 3029               		.cfi_offset 10, -9
 3030 000e BF92      		push r11
 3031               	.LCFI124:
 3032               		.cfi_def_cfa_offset 11
 3033               		.cfi_offset 11, -10
 3034 0010 EF92      		push r14
 3035               	.LCFI125:
 3036               		.cfi_def_cfa_offset 12
 3037               		.cfi_offset 14, -11
 3038 0012 FF92      		push r15
 3039               	.LCFI126:
 3040               		.cfi_def_cfa_offset 13
 3041               		.cfi_offset 15, -12
 3042 0014 0F93      		push r16
 3043               	.LCFI127:
 3044               		.cfi_def_cfa_offset 14
 3045               		.cfi_offset 16, -13
 3046 0016 1F93      		push r17
 3047               	.LCFI128:
 3048               		.cfi_def_cfa_offset 15
 3049               		.cfi_offset 17, -14
 3050 0018 CF93      		push r28
 3051               	.LCFI129:
 3052               		.cfi_def_cfa_offset 16
 3053               		.cfi_offset 28, -15
 3054 001a DF93      		push r29
 3055               	.LCFI130:
 3056               		.cfi_def_cfa_offset 17
 3057               		.cfi_offset 29, -16
 3058 001c 00D0      		rcall .
 3059 001e 1F92      		push __zero_reg__
 3060               	.LCFI131:
 3061               		.cfi_def_cfa_offset 21
 3062 0020 CDB7      		in r28,__SP_L__
 3063 0022 DEB7      		in r29,__SP_H__
 3064               	.LCFI132:
 3065               		.cfi_def_cfa_register 28
 3066               	/* prologue: function */
 3067               	/* frame size = 4 */
 3068               	/* stack size = 18 */
 3069               	.L__stack_usage = 18
 3070 0024 7C01      		movw r14,r24
 3071 0026 8B01      		movw r16,r22
 3072               	.LVL262:
  47:./ros_lib/rosserial_msgs/Log.h ****       offset += sizeof(this->level);
 3073               		.loc 3 47 0
 3074 0028 FB01      		movw r30,r22
 3075 002a 8191      		ld r24,Z+
 3076               	.LVL263:
 3077 002c BF01      		movw r22,r30
 3078               	.LVL264:
 3079 002e F701      		movw r30,r14
 3080 0030 8283      		std Z+2,r24
 3081               	.LVL265:
  50:./ros_lib/rosserial_msgs/Log.h ****       offset += 4;
 3082               		.loc 3 50 0
 3083 0032 CE01      		movw r24,r28
 3084 0034 0196      		adiw r24,1
 3085 0036 0E94 0000 		call _ZN3ros3Msg8arrToVarImPhEEvRT_T0_
 3086               	.LVL266:
 3087               	.LBB129:
  52:./ros_lib/rosserial_msgs/Log.h ****           inbuffer[k-1]=inbuffer[k];
 3088               		.loc 3 52 0
 3089 003a 8981      		ldd r24,Y+1
 3090 003c 9A81      		ldd r25,Y+2
 3091 003e AB81      		ldd r26,Y+3
 3092 0040 BC81      		ldd r27,Y+4
 3093 0042 4C01      		movw r8,r24
 3094 0044 5D01      		movw r10,r26
 3095 0046 F5E0      		ldi r31,5
 3096 0048 8F0E      		add r8,r31
 3097 004a 911C      		adc r9,__zero_reg__
 3098 004c A11C      		adc r10,__zero_reg__
 3099 004e B11C      		adc r11,__zero_reg__
 3100 0050 A801      		movw r20,r16
 3101 0052 4C5F      		subi r20,-4
 3102 0054 5F4F      		sbci r21,-1
 3103 0056 FA01      		movw r30,r20
 3104 0058 25E0      		ldi r18,lo8(5)
 3105 005a 30E0      		ldi r19,0
 3106               	.LVL267:
 3107               	.L69:
  52:./ros_lib/rosserial_msgs/Log.h ****           inbuffer[k-1]=inbuffer[k];
 3108               		.loc 3 52 0 is_stmt 0 discriminator 3
 3109 005c 2901      		movw r4,r18
 3110 005e 612C      		mov r6,__zero_reg__
 3111 0060 712C      		mov r7,__zero_reg__
 3112 0062 4814      		cp r4,r8
 3113 0064 5904      		cpc r5,r9
 3114 0066 6A04      		cpc r6,r10
 3115 0068 7B04      		cpc r7,r11
 3116 006a 00F4      		brsh .L68
  53:./ros_lib/rosserial_msgs/Log.h ****       }
 3117               		.loc 3 53 0 is_stmt 1 discriminator 2
 3118 006c 6181      		ldd r22,Z+1
 3119 006e 6193      		st Z+,r22
  52:./ros_lib/rosserial_msgs/Log.h ****           inbuffer[k-1]=inbuffer[k];
 3120               		.loc 3 52 0 discriminator 2
 3121 0070 2F5F      		subi r18,-1
 3122 0072 3F4F      		sbci r19,-1
 3123               	.LVL268:
 3124 0074 00C0      		rjmp .L69
 3125               	.LVL269:
 3126               	.L68:
 3127               	.LBE129:
  55:./ros_lib/rosserial_msgs/Log.h ****       this->msg = (char *)(inbuffer + offset-1);
 3128               		.loc 3 55 0
 3129 0076 F801      		movw r30,r16
 3130 0078 E80F      		add r30,r24
 3131 007a F91F      		adc r31,r25
 3132 007c 1482      		std Z+4,__zero_reg__
  56:./ros_lib/rosserial_msgs/Log.h ****       offset += length_msg;
 3133               		.loc 3 56 0
 3134 007e F701      		movw r30,r14
 3135 0080 5483      		std Z+4,r21
 3136 0082 4383      		std Z+3,r20
 3137               	.LVL270:
  59:./ros_lib/rosserial_msgs/Log.h **** 
 3138               		.loc 3 59 0
 3139 0084 0596      		adiw r24,5
 3140               	.LVL271:
 3141               	/* epilogue start */
 3142 0086 0F90      		pop __tmp_reg__
 3143 0088 0F90      		pop __tmp_reg__
 3144 008a 0F90      		pop __tmp_reg__
 3145 008c 0F90      		pop __tmp_reg__
 3146 008e DF91      		pop r29
 3147 0090 CF91      		pop r28
 3148               	.LVL272:
 3149 0092 1F91      		pop r17
 3150               	.LVL273:
 3151 0094 0F91      		pop r16
 3152               	.LVL274:
 3153 0096 FF90      		pop r15
 3154               	.LVL275:
 3155 0098 EF90      		pop r14
 3156               	.LVL276:
 3157 009a BF90      		pop r11
 3158               	.LVL277:
 3159 009c AF90      		pop r10
 3160               	.LVL278:
 3161 009e 9F90      		pop r9
 3162               	.LVL279:
 3163 00a0 8F90      		pop r8
 3164               	.LVL280:
 3165 00a2 7F90      		pop r7
 3166               	.LVL281:
 3167 00a4 6F90      		pop r6
 3168               	.LVL282:
 3169 00a6 5F90      		pop r5
 3170               	.LVL283:
 3171 00a8 4F90      		pop r4
 3172               	.LVL284:
 3173 00aa 0895      		ret
 3174               		.cfi_endproc
 3175               	.LFE48:
 3177               		.section	.text._ZN14rosserial_msgs9TopicInfo11deserializeEPh,"axG",@progbits,_ZN14rosserial_msgs9T
 3178               		.weak	_ZN14rosserial_msgs9TopicInfo11deserializeEPh
 3180               	_ZN14rosserial_msgs9TopicInfo11deserializeEPh:
 3181               	.LFB41:
  77:./ros_lib/rosserial_msgs/TopicInfo.h ****     {
 3182               		.loc 2 77 0
 3183               		.cfi_startproc
 3184               	.LVL285:
 3185 0000 4F92      		push r4
 3186               	.LCFI133:
 3187               		.cfi_def_cfa_offset 4
 3188               		.cfi_offset 4, -3
 3189 0002 5F92      		push r5
 3190               	.LCFI134:
 3191               		.cfi_def_cfa_offset 5
 3192               		.cfi_offset 5, -4
 3193 0004 6F92      		push r6
 3194               	.LCFI135:
 3195               		.cfi_def_cfa_offset 6
 3196               		.cfi_offset 6, -5
 3197 0006 7F92      		push r7
 3198               	.LCFI136:
 3199               		.cfi_def_cfa_offset 7
 3200               		.cfi_offset 7, -6
 3201 0008 8F92      		push r8
 3202               	.LCFI137:
 3203               		.cfi_def_cfa_offset 8
 3204               		.cfi_offset 8, -7
 3205 000a 9F92      		push r9
 3206               	.LCFI138:
 3207               		.cfi_def_cfa_offset 9
 3208               		.cfi_offset 9, -8
 3209 000c AF92      		push r10
 3210               	.LCFI139:
 3211               		.cfi_def_cfa_offset 10
 3212               		.cfi_offset 10, -9
 3213 000e BF92      		push r11
 3214               	.LCFI140:
 3215               		.cfi_def_cfa_offset 11
 3216               		.cfi_offset 11, -10
 3217 0010 CF92      		push r12
 3218               	.LCFI141:
 3219               		.cfi_def_cfa_offset 12
 3220               		.cfi_offset 12, -11
 3221 0012 DF92      		push r13
 3222               	.LCFI142:
 3223               		.cfi_def_cfa_offset 13
 3224               		.cfi_offset 13, -12
 3225 0014 EF92      		push r14
 3226               	.LCFI143:
 3227               		.cfi_def_cfa_offset 14
 3228               		.cfi_offset 14, -13
 3229 0016 FF92      		push r15
 3230               	.LCFI144:
 3231               		.cfi_def_cfa_offset 15
 3232               		.cfi_offset 15, -14
 3233 0018 0F93      		push r16
 3234               	.LCFI145:
 3235               		.cfi_def_cfa_offset 16
 3236               		.cfi_offset 16, -15
 3237 001a 1F93      		push r17
 3238               	.LCFI146:
 3239               		.cfi_def_cfa_offset 17
 3240               		.cfi_offset 17, -16
 3241 001c CF93      		push r28
 3242               	.LCFI147:
 3243               		.cfi_def_cfa_offset 18
 3244               		.cfi_offset 28, -17
 3245 001e DF93      		push r29
 3246               	.LCFI148:
 3247               		.cfi_def_cfa_offset 19
 3248               		.cfi_offset 29, -18
 3249 0020 CDB7      		in r28,__SP_L__
 3250 0022 DEB7      		in r29,__SP_H__
 3251               	.LCFI149:
 3252               		.cfi_def_cfa_register 28
 3253 0024 2C97      		sbiw r28,12
 3254               	.LCFI150:
 3255               		.cfi_def_cfa_offset 31
 3256 0026 0FB6      		in __tmp_reg__,__SREG__
 3257 0028 F894      		cli
 3258 002a DEBF      		out __SP_H__,r29
 3259 002c 0FBE      		out __SREG__,__tmp_reg__
 3260 002e CDBF      		out __SP_L__,r28
 3261               	/* prologue: function */
 3262               	/* frame size = 12 */
 3263               	/* stack size = 28 */
 3264               	.L__stack_usage = 28
 3265 0030 7C01      		movw r14,r24
 3266 0032 8B01      		movw r16,r22
 3267               	.LVL286:
  80:./ros_lib/rosserial_msgs/TopicInfo.h ****       this->topic_id |= ((uint16_t) (*(inbuffer + offset + 1))) << (8 * 1);
 3268               		.loc 2 80 0
 3269 0034 DB01      		movw r26,r22
 3270 0036 8C91      		ld r24,X
 3271               	.LVL287:
 3272 0038 90E0      		ldi r25,0
 3273 003a F701      		movw r30,r14
 3274 003c 9383      		std Z+3,r25
 3275 003e 8283      		std Z+2,r24
  81:./ros_lib/rosserial_msgs/TopicInfo.h ****       offset += sizeof(this->topic_id);
 3276               		.loc 2 81 0
 3277 0040 1196      		adiw r26,1
 3278 0042 2C91      		ld r18,X
 3279 0044 922B      		or r25,r18
 3280 0046 9383      		std Z+3,r25
 3281 0048 8283      		std Z+2,r24
 3282               	.LVL288:
  84:./ros_lib/rosserial_msgs/TopicInfo.h ****       offset += 4;
 3283               		.loc 2 84 0
 3284 004a 6E5F      		subi r22,-2
 3285 004c 7F4F      		sbci r23,-1
 3286               	.LVL289:
 3287 004e CE01      		movw r24,r28
 3288 0050 0996      		adiw r24,9
 3289 0052 0E94 0000 		call _ZN3ros3Msg8arrToVarImPhEEvRT_T0_
 3290               	.LVL290:
 3291               	.LBB130:
  86:./ros_lib/rosserial_msgs/TopicInfo.h ****           inbuffer[k-1]=inbuffer[k];
 3292               		.loc 2 86 0
 3293 0056 8984      		ldd r8,Y+9
 3294 0058 9A84      		ldd r9,Y+10
 3295 005a AB84      		ldd r10,Y+11
 3296 005c BC84      		ldd r11,Y+12
 3297 005e 2401      		movw r4,r8
 3298 0060 3501      		movw r6,r10
 3299 0062 F6E0      		ldi r31,6
 3300 0064 4F0E      		add r4,r31
 3301 0066 511C      		adc r5,__zero_reg__
