00000000 W __heap_end
00000000 A __TEXT_REGION_ORIGIN__
00000000 a __tmp_reg__
00000000 a __tmp_reg__
00000000 a __tmp_reg__
00000000 a __tmp_reg__
00000000 a __tmp_reg__
00000000 a __tmp_reg__
00000000 a __tmp_reg__
00000000 a __tmp_reg__
00000000 W __vector_default
00000000 T __vectors
00000001 a __zero_reg__
00000001 a __zero_reg__
00000001 a __zero_reg__
00000001 a __zero_reg__
00000001 a __zero_reg__
00000001 a __zero_reg__
00000001 a __zero_reg__
00000001 a __zero_reg__
00000003 A __FUSE_REGION_LENGTH__
0000003b a __RAMPZ__
0000003b a __RAMPZ__
0000003b a __RAMPZ__
0000003b a __RAMPZ__
0000003b a __RAMPZ__
0000003b a __RAMPZ__
0000003b a __RAMPZ__
0000003b a __RAMPZ__
0000003d a __SP_L__
0000003d a __SP_L__
0000003d a __SP_L__
0000003d a __SP_L__
0000003d a __SP_L__
0000003d a __SP_L__
0000003d a __SP_L__
0000003d a __SP_L__
0000003e a __SP_H__
0000003e a __SP_H__
0000003e a __SP_H__
0000003e a __SP_H__
0000003e a __SP_H__
0000003e a __SP_H__
0000003e a __SP_H__
0000003e a __SP_H__
0000003f a __SREG__
0000003f a __SREG__
0000003f a __SREG__
0000003f a __SREG__
0000003f a __SREG__
0000003f a __SREG__
0000003f a __SREG__
0000003f a __SREG__
000000e4 T __trampolines_start
00000178 T __ctors_start
00000178 T __trampolines_end
0000017a T __ctors_end
0000017a T __dtors_end
0000017a T __dtors_start
0000017a W __init
0000018a T __do_copy_data
000001a4 T __do_clear_bss
000001ac t .do_clear_bss_loop
000001ae t .do_clear_bss_start
000001b4 T __do_global_ctors
000001dc T __bad_interrupt
000001dc W __vector_1
000001dc W __vector_10
000001dc W __vector_11
000001dc W __vector_12
000001dc W __vector_13
000001dc W __vector_14
000001dc W __vector_15
000001dc W __vector_16
000001dc W __vector_17
000001dc W __vector_18
000001dc W __vector_19
000001dc W __vector_2
000001dc W __vector_20
000001dc W __vector_21
000001dc W __vector_22
000001dc W __vector_24
000001dc W __vector_25
000001dc W __vector_26
000001dc W __vector_27
000001dc W __vector_28
000001dc W __vector_29
000001dc W __vector_3
000001dc W __vector_30
000001dc W __vector_31
000001dc W __vector_32
000001dc W __vector_33
000001dc W __vector_34
000001dc W __vector_35
000001dc W __vector_36
000001dc W __vector_37
000001dc W __vector_38
000001dc W __vector_39
000001dc W __vector_4
000001dc W __vector_40
000001dc W __vector_41
000001dc W __vector_42
000001dc W __vector_43
000001dc W __vector_44
000001dc W __vector_45
000001dc W __vector_46
000001dc W __vector_47
000001dc W __vector_48
000001dc W __vector_49
000001dc W __vector_5
000001dc W __vector_50
000001dc W __vector_51
000001dc W __vector_52
000001dc W __vector_53
000001dc W __vector_54
000001dc W __vector_55
000001dc W __vector_56
000001dc W __vector_6
000001dc W __vector_7
000001dc W __vector_8
000001dc W __vector_9
000001e0 T __vector_23
00000288 T avr_time_init
0000029a T avr_time_now
000002b0 T avr_uart_init
000002d0 T avr_uart_send_byte
000002e2 T avr_uart_receive_byte
000002f8 T Nastroika
00000316 T SetAngle1
000003b6 T SetAngle2
00000400 A __LOCK_REGION_LENGTH__
00000400 A __SIGNATURE_REGION_LENGTH__
00000400 A __USER_SIGNATURE_REGION_LENGTH__
00000456 T SetAngle3
000004d0 T _Z9messageCbRKN8std_msgs17Float32MultiArrayE
0000051c T __cxa_pure_virtual
0000051e T _ZN3ros16normalizeSecNSecERmS0_
0000057a T _ZN3ros4Time8fromNSecEl
000005b4 T _ZN3ros4TimepLERKNS_8DurationE
00000624 T _ZN3ros4TimemIERKNS_8DurationE
00000694 T _ZNK3ros4TimemiERKS0_
00000740 T _ZN3ros22normalizeSecNSecSignedERlS0_
000007a6 T _ZN3ros8DurationpLERKS0_
0000080a T _ZN3ros8DurationmIERKS0_
0000086e T _ZN3ros8DurationmLEd
000008dc W _ZNK8std_msgs4Time9serializeEPh
00000924 W _ZN8std_msgs4Time11deserializeEPh
000009b0 W _ZN8std_msgs4Time7getTypeEv
000009b6 W _ZN8std_msgs4Time6getMD5Ev
000009bc W _ZN14rosserial_msgs9TopicInfo7getTypeEv
000009c2 W _ZN14rosserial_msgs9TopicInfo6getMD5Ev
000009c8 W _ZN14rosserial_msgs3Log7getTypeEv
000009ce W _ZN14rosserial_msgs3Log6getMD5Ev
000009d4 W _ZN14rosserial_msgs20RequestParamResponse7getTypeEv
000009da W _ZN14rosserial_msgs20RequestParamResponse6getMD5Ev
000009e0 W _ZN8std_msgs19MultiArrayDimension7getTypeEv
000009e6 W _ZN8std_msgs19MultiArrayDimension6getMD5Ev
000009ec W _ZNK8std_msgs16MultiArrayLayout9serializeEPh
00000aaa W _ZN8std_msgs16MultiArrayLayout7getTypeEv
00000ab0 W _ZN8std_msgs16MultiArrayLayout6getMD5Ev
00000ab6 W _ZNK8std_msgs17Float32MultiArray9serializeEPh
00000b50 W _ZN8std_msgs17Float32MultiArray7getTypeEv
00000b56 W _ZN8std_msgs17Float32MultiArray6getMD5Ev
00000b5c W _ZN3ros10SubscriberIN8std_msgs17Float32MultiArrayEvE15getEndpointTypeEv
00000b64 W _ZN3ros10SubscriberIN8std_msgs17Float32MultiArrayEvE10getMsgTypeEv
00000b6a W _ZN3ros10SubscriberIN8std_msgs17Float32MultiArrayEvE9getMsgMD5Ev
00000b70 W _ZN3ros11NodeHandle_I18Atmega2560HardwareLi25ELi25ELi512ELi512EE9connectedEv
00000b7a W _ZN3ros11NodeHandle_I18Atmega2560HardwareLi25ELi25ELi512ELi512EE7publishEiPKNS_3MsgE
00000ca6 W _ZN3ros3Msg8varToArrIPhmEEvT_T0_
00000ce0 W _ZNK8std_msgs19MultiArrayDimension9serializeEPh
00000d56 W _ZNK14rosserial_msgs20RequestParamResponse9serializeEPh
00000f08 W _ZNK14rosserial_msgs3Log9serializeEPh
00000f6c W _ZNK14rosserial_msgs9TopicInfo9serializeEPh
0000108e W _ZN3ros3Msg8arrToVarImPhEEvRT_T0_
000010ea W _ZN8std_msgs19MultiArrayDimension11deserializeEPh
00001214 W _ZN8std_msgs16MultiArrayLayout11deserializeEPh
00001326 W _ZN8std_msgs17Float32MultiArray11deserializeEPh
00001428 W _ZN3ros10SubscriberIN8std_msgs17Float32MultiArrayEvE8callbackEPh
00001452 W _ZN14rosserial_msgs3Log11deserializeEPh
000014fe W _ZN14rosserial_msgs9TopicInfo11deserializeEPh
000016da W _ZN14rosserial_msgs20RequestParamResponse11deserializeEPh
00001a50 W _ZN3ros11NodeHandle_I18Atmega2560HardwareLi25ELi25ELi512ELi512EE15requestSyncTimeEv
00001ac0 W _ZN3ros11NodeHandle_I18Atmega2560HardwareLi25ELi25ELi512ELi512EE15negotiateTopicsEv
00001c8a W _ZN3ros11NodeHandle_I18Atmega2560HardwareLi25ELi25ELi512ELi512EE8syncTimeEPh
00001dfe W _ZN3ros11NodeHandle_I18Atmega2560HardwareLi25ELi25ELi512ELi512EE8spinOnceEv
000021ff W __stack
0000227e T main
0000231c t _GLOBAL__sub_I___cxa_pure_virtual
000024e2 T __subsf3
000024e4 T __addsf3
00002512 T __addsf3x
000025bc T __fixsfsi
000025ca T __fixunssfsi
00002628 T __floatunsisf
0000262c T __floatsisf
000026a2 T __fp_inf
000026ae T __fp_nan
000026b4 T __fp_pscA
000026c2 T __fp_pscB
000026d0 T __fp_round
000026f2 T __fp_split3
00002702 T __fp_splitA
00002736 T __fp_zero
00002738 T __fp_szero
00002744 T __mulsf3
0000276a T __mulsf3x
00002770 T __mulsf3_pse
0000281e T __mulsi3
0000283e T _div
0000283e T __divmodhi4
00002856 t __divmodhi4_neg1
0000285e t __divmodhi4_neg2
00002864 t __divmodhi4_exit
00002866 T __udivmodsi4
00002872 t __udivmodsi4_loop
0000288c t __udivmodsi4_ep
000028aa T __divmodsi4
000028c8 t __divmodsi4_neg2
000028d6 t __divmodsi4_exit
000028d8 T __negsi2
000028e8 T __muluhisi3
000028fe T __udivmodhi4
00002906 t __udivmodhi4_loop
00002914 t __udivmodhi4_ep
00002926 T __tablejump2__
00002936 T __umulhisi3
00002954 T realloc
00002b1e T memcpy
00002b30 T malloc
00002c60 T free
00002d72 T _exit
00002d72 W exit
00002d74 t __stop_program
00002d76 A __data_load_start
00002d76 T _etext
00002fba A __data_load_end
0000fe00 A __DATA_REGION_LENGTH__
00010000 A __EEPROM_REGION_LENGTH__
00100000 A __TEXT_REGION_LENGTH__
00800200 D centr
00800200 A __DATA_REGION_ORIGIN__
00800200 D __data_start
00800204 D my_delay
00800206 D __malloc_heap_end
00800208 D __malloc_heap_start
0080020a D __malloc_margin
0080020c d _ZN14rosserial_msgsL12REQUESTPARAME
008003d9 V _ZTVN8std_msgs4TimeE
008003e5 V _ZTVN14rosserial_msgs9TopicInfoE
008003f1 V _ZTVN14rosserial_msgs3LogE
008003fd V _ZTVN14rosserial_msgs20RequestParamResponseE
00800409 V _ZTVN8std_msgs19MultiArrayDimensionE
00800415 V _ZTVN8std_msgs16MultiArrayLayoutE
00800421 V _ZTVN8std_msgs17Float32MultiArrayE
0080042d V _ZTVN3ros11NodeHandle_I18Atmega2560HardwareLi25ELi25ELi512ELi512EEE
00800437 V _ZTVN3ros10SubscriberIN8std_msgs17Float32MultiArrayEvEE
00800444 B __bss_start
00800444 D __data_end
00800444 D _edata
00800444 b overflow_ms
00800448 b timer0_ticks
0080044c B sub
0080047a B nh
00800927 B x
0080092b B alfa
0080092f B z
00800933 B y
00800937 B beta
0080093b B __brkval
0080093d B __flp
0080093f B __bss_end
0080093f N _end
0080093f N __heap_start
00810000 N __eeprom_end
